
bomb:     file format elf32-i386


Disassembly of section .init:

080486f4 <_init>:
 80486f4:	53                   	push   %ebx
 80486f5:	83 ec 08             	sub    $0x8,%esp
 80486f8:	e8 13 02 00 00       	call   8048910 <__x86.get_pc_thunk.bx>
 80486fd:	81 c3 03 39 00 00    	add    $0x3903,%ebx
 8048703:	8b 83 fc ff ff ff    	mov    -0x4(%ebx),%eax
 8048709:	85 c0                	test   %eax,%eax
 804870b:	74 05                	je     8048712 <_init+0x1e>
 804870d:	e8 be 01 00 00       	call   80488d0 <.plt.got>
 8048712:	83 c4 08             	add    $0x8,%esp
 8048715:	5b                   	pop    %ebx
 8048716:	c3                   	ret    

Disassembly of section .plt:

08048720 <.plt>:
 8048720:	ff 35 04 c0 04 08    	pushl  0x804c004
 8048726:	ff 25 08 c0 04 08    	jmp    *0x804c008
 804872c:	00 00                	add    %al,(%eax)
	...

08048730 <read@plt>:
 8048730:	ff 25 0c c0 04 08    	jmp    *0x804c00c
 8048736:	68 00 00 00 00       	push   $0x0
 804873b:	e9 e0 ff ff ff       	jmp    8048720 <.plt>

08048740 <fflush@plt>:
 8048740:	ff 25 10 c0 04 08    	jmp    *0x804c010
 8048746:	68 08 00 00 00       	push   $0x8
 804874b:	e9 d0 ff ff ff       	jmp    8048720 <.plt>

08048750 <fgets@plt>:
 8048750:	ff 25 14 c0 04 08    	jmp    *0x804c014
 8048756:	68 10 00 00 00       	push   $0x10
 804875b:	e9 c0 ff ff ff       	jmp    8048720 <.plt>

08048760 <signal@plt>:
 8048760:	ff 25 18 c0 04 08    	jmp    *0x804c018
 8048766:	68 18 00 00 00       	push   $0x18
 804876b:	e9 b0 ff ff ff       	jmp    8048720 <.plt>

08048770 <sleep@plt>:
 8048770:	ff 25 1c c0 04 08    	jmp    *0x804c01c
 8048776:	68 20 00 00 00       	push   $0x20
 804877b:	e9 a0 ff ff ff       	jmp    8048720 <.plt>

08048780 <alarm@plt>:
 8048780:	ff 25 20 c0 04 08    	jmp    *0x804c020
 8048786:	68 28 00 00 00       	push   $0x28
 804878b:	e9 90 ff ff ff       	jmp    8048720 <.plt>

08048790 <__stack_chk_fail@plt>:
 8048790:	ff 25 24 c0 04 08    	jmp    *0x804c024
 8048796:	68 30 00 00 00       	push   $0x30
 804879b:	e9 80 ff ff ff       	jmp    8048720 <.plt>

080487a0 <strcpy@plt>:
 80487a0:	ff 25 28 c0 04 08    	jmp    *0x804c028
 80487a6:	68 38 00 00 00       	push   $0x38
 80487ab:	e9 70 ff ff ff       	jmp    8048720 <.plt>

080487b0 <getenv@plt>:
 80487b0:	ff 25 2c c0 04 08    	jmp    *0x804c02c
 80487b6:	68 40 00 00 00       	push   $0x40
 80487bb:	e9 60 ff ff ff       	jmp    8048720 <.plt>

080487c0 <puts@plt>:
 80487c0:	ff 25 30 c0 04 08    	jmp    *0x804c030
 80487c6:	68 48 00 00 00       	push   $0x48
 80487cb:	e9 50 ff ff ff       	jmp    8048720 <.plt>

080487d0 <__memmove_chk@plt>:
 80487d0:	ff 25 34 c0 04 08    	jmp    *0x804c034
 80487d6:	68 50 00 00 00       	push   $0x50
 80487db:	e9 40 ff ff ff       	jmp    8048720 <.plt>

080487e0 <exit@plt>:
 80487e0:	ff 25 38 c0 04 08    	jmp    *0x804c038
 80487e6:	68 58 00 00 00       	push   $0x58
 80487eb:	e9 30 ff ff ff       	jmp    8048720 <.plt>

080487f0 <__libc_start_main@plt>:
 80487f0:	ff 25 3c c0 04 08    	jmp    *0x804c03c
 80487f6:	68 60 00 00 00       	push   $0x60
 80487fb:	e9 20 ff ff ff       	jmp    8048720 <.plt>

08048800 <write@plt>:
 8048800:	ff 25 40 c0 04 08    	jmp    *0x804c040
 8048806:	68 68 00 00 00       	push   $0x68
 804880b:	e9 10 ff ff ff       	jmp    8048720 <.plt>

08048810 <__isoc99_sscanf@plt>:
 8048810:	ff 25 44 c0 04 08    	jmp    *0x804c044
 8048816:	68 70 00 00 00       	push   $0x70
 804881b:	e9 00 ff ff ff       	jmp    8048720 <.plt>

08048820 <fopen@plt>:
 8048820:	ff 25 48 c0 04 08    	jmp    *0x804c048
 8048826:	68 78 00 00 00       	push   $0x78
 804882b:	e9 f0 fe ff ff       	jmp    8048720 <.plt>

08048830 <__errno_location@plt>:
 8048830:	ff 25 4c c0 04 08    	jmp    *0x804c04c
 8048836:	68 80 00 00 00       	push   $0x80
 804883b:	e9 e0 fe ff ff       	jmp    8048720 <.plt>

08048840 <__printf_chk@plt>:
 8048840:	ff 25 50 c0 04 08    	jmp    *0x804c050
 8048846:	68 88 00 00 00       	push   $0x88
 804884b:	e9 d0 fe ff ff       	jmp    8048720 <.plt>

08048850 <socket@plt>:
 8048850:	ff 25 54 c0 04 08    	jmp    *0x804c054
 8048856:	68 90 00 00 00       	push   $0x90
 804885b:	e9 c0 fe ff ff       	jmp    8048720 <.plt>

08048860 <__fprintf_chk@plt>:
 8048860:	ff 25 58 c0 04 08    	jmp    *0x804c058
 8048866:	68 98 00 00 00       	push   $0x98
 804886b:	e9 b0 fe ff ff       	jmp    8048720 <.plt>

08048870 <gethostbyname@plt>:
 8048870:	ff 25 5c c0 04 08    	jmp    *0x804c05c
 8048876:	68 a0 00 00 00       	push   $0xa0
 804887b:	e9 a0 fe ff ff       	jmp    8048720 <.plt>

08048880 <strtol@plt>:
 8048880:	ff 25 60 c0 04 08    	jmp    *0x804c060
 8048886:	68 a8 00 00 00       	push   $0xa8
 804888b:	e9 90 fe ff ff       	jmp    8048720 <.plt>

08048890 <connect@plt>:
 8048890:	ff 25 64 c0 04 08    	jmp    *0x804c064
 8048896:	68 b0 00 00 00       	push   $0xb0
 804889b:	e9 80 fe ff ff       	jmp    8048720 <.plt>

080488a0 <close@plt>:
 80488a0:	ff 25 68 c0 04 08    	jmp    *0x804c068
 80488a6:	68 b8 00 00 00       	push   $0xb8
 80488ab:	e9 70 fe ff ff       	jmp    8048720 <.plt>

080488b0 <__ctype_b_loc@plt>:
 80488b0:	ff 25 6c c0 04 08    	jmp    *0x804c06c
 80488b6:	68 c0 00 00 00       	push   $0xc0
 80488bb:	e9 60 fe ff ff       	jmp    8048720 <.plt>

080488c0 <__sprintf_chk@plt>:
 80488c0:	ff 25 70 c0 04 08    	jmp    *0x804c070
 80488c6:	68 c8 00 00 00       	push   $0xc8
 80488cb:	e9 50 fe ff ff       	jmp    8048720 <.plt>

Disassembly of section .plt.got:

080488d0 <.plt.got>:
 80488d0:	ff 25 fc bf 04 08    	jmp    *0x804bffc
 80488d6:	66 90                	xchg   %ax,%ax

Disassembly of section .text:

080488e0 <_start>:
 80488e0:	31 ed                	xor    %ebp,%ebp
 80488e2:	5e                   	pop    %esi
 80488e3:	89 e1                	mov    %esp,%ecx
 80488e5:	83 e4 f0             	and    $0xfffffff0,%esp
 80488e8:	50                   	push   %eax
 80488e9:	54                   	push   %esp
 80488ea:	52                   	push   %edx
 80488eb:	68 50 9f 04 08       	push   $0x8049f50
 80488f0:	68 f0 9e 04 08       	push   $0x8049ef0
 80488f5:	51                   	push   %ecx
 80488f6:	56                   	push   %esi
 80488f7:	68 db 89 04 08       	push   $0x80489db
 80488fc:	e8 ef fe ff ff       	call   80487f0 <__libc_start_main@plt>
 8048901:	f4                   	hlt    
 8048902:	66 90                	xchg   %ax,%ax
 8048904:	66 90                	xchg   %ax,%ax
 8048906:	66 90                	xchg   %ax,%ax
 8048908:	66 90                	xchg   %ax,%ax
 804890a:	66 90                	xchg   %ax,%ax
 804890c:	66 90                	xchg   %ax,%ax
 804890e:	66 90                	xchg   %ax,%ax

08048910 <__x86.get_pc_thunk.bx>:
 8048910:	8b 1c 24             	mov    (%esp),%ebx
 8048913:	c3                   	ret    
 8048914:	66 90                	xchg   %ax,%ax
 8048916:	66 90                	xchg   %ax,%ax
 8048918:	66 90                	xchg   %ax,%ax
 804891a:	66 90                	xchg   %ax,%ax
 804891c:	66 90                	xchg   %ax,%ax
 804891e:	66 90                	xchg   %ax,%ax

08048920 <deregister_tm_clones>:
 8048920:	b8 a3 c3 04 08       	mov    $0x804c3a3,%eax
 8048925:	2d a0 c3 04 08       	sub    $0x804c3a0,%eax
 804892a:	83 f8 06             	cmp    $0x6,%eax
 804892d:	76 1a                	jbe    8048949 <deregister_tm_clones+0x29>
 804892f:	b8 00 00 00 00       	mov    $0x0,%eax
 8048934:	85 c0                	test   %eax,%eax
 8048936:	74 11                	je     8048949 <deregister_tm_clones+0x29>
 8048938:	55                   	push   %ebp
 8048939:	89 e5                	mov    %esp,%ebp
 804893b:	83 ec 14             	sub    $0x14,%esp
 804893e:	68 a0 c3 04 08       	push   $0x804c3a0
 8048943:	ff d0                	call   *%eax
 8048945:	83 c4 10             	add    $0x10,%esp
 8048948:	c9                   	leave  
 8048949:	f3 c3                	repz ret 
 804894b:	90                   	nop
 804894c:	8d 74 26 00          	lea    0x0(%esi,%eiz,1),%esi

08048950 <register_tm_clones>:
 8048950:	b8 a0 c3 04 08       	mov    $0x804c3a0,%eax
 8048955:	2d a0 c3 04 08       	sub    $0x804c3a0,%eax
 804895a:	c1 f8 02             	sar    $0x2,%eax
 804895d:	89 c2                	mov    %eax,%edx
 804895f:	c1 ea 1f             	shr    $0x1f,%edx
 8048962:	01 d0                	add    %edx,%eax
 8048964:	d1 f8                	sar    %eax
 8048966:	74 1b                	je     8048983 <register_tm_clones+0x33>
 8048968:	ba 00 00 00 00       	mov    $0x0,%edx
 804896d:	85 d2                	test   %edx,%edx
 804896f:	74 12                	je     8048983 <register_tm_clones+0x33>
 8048971:	55                   	push   %ebp
 8048972:	89 e5                	mov    %esp,%ebp
 8048974:	83 ec 10             	sub    $0x10,%esp
 8048977:	50                   	push   %eax
 8048978:	68 a0 c3 04 08       	push   $0x804c3a0
 804897d:	ff d2                	call   *%edx
 804897f:	83 c4 10             	add    $0x10,%esp
 8048982:	c9                   	leave  
 8048983:	f3 c3                	repz ret 
 8048985:	8d 74 26 00          	lea    0x0(%esi,%eiz,1),%esi
 8048989:	8d bc 27 00 00 00 00 	lea    0x0(%edi,%eiz,1),%edi

08048990 <__do_global_dtors_aux>:
 8048990:	80 3d c8 c3 04 08 00 	cmpb   $0x0,0x804c3c8
 8048997:	75 13                	jne    80489ac <__do_global_dtors_aux+0x1c>
 8048999:	55                   	push   %ebp
 804899a:	89 e5                	mov    %esp,%ebp
 804899c:	83 ec 08             	sub    $0x8,%esp
 804899f:	e8 7c ff ff ff       	call   8048920 <deregister_tm_clones>
 80489a4:	c6 05 c8 c3 04 08 01 	movb   $0x1,0x804c3c8
 80489ab:	c9                   	leave  
 80489ac:	f3 c3                	repz ret 
 80489ae:	66 90                	xchg   %ax,%ax

080489b0 <frame_dummy>:
 80489b0:	b8 10 bf 04 08       	mov    $0x804bf10,%eax
 80489b5:	8b 10                	mov    (%eax),%edx
 80489b7:	85 d2                	test   %edx,%edx
 80489b9:	75 05                	jne    80489c0 <frame_dummy+0x10>
 80489bb:	eb 93                	jmp    8048950 <register_tm_clones>
 80489bd:	8d 76 00             	lea    0x0(%esi),%esi
 80489c0:	ba 00 00 00 00       	mov    $0x0,%edx
 80489c5:	85 d2                	test   %edx,%edx
 80489c7:	74 f2                	je     80489bb <frame_dummy+0xb>
 80489c9:	55                   	push   %ebp
 80489ca:	89 e5                	mov    %esp,%ebp
 80489cc:	83 ec 14             	sub    $0x14,%esp
 80489cf:	50                   	push   %eax
 80489d0:	ff d2                	call   *%edx
 80489d2:	83 c4 10             	add    $0x10,%esp
 80489d5:	c9                   	leave  
 80489d6:	e9 75 ff ff ff       	jmp    8048950 <register_tm_clones>

080489db <main>:
 80489db:	8d 4c 24 04          	lea    0x4(%esp),%ecx
 80489df:	83 e4 f0             	and    $0xfffffff0,%esp
 80489e2:	ff 71 fc             	pushl  -0x4(%ecx)
 80489e5:	55                   	push   %ebp
 80489e6:	89 e5                	mov    %esp,%ebp
 80489e8:	53                   	push   %ebx
 80489e9:	51                   	push   %ecx
 80489ea:	8b 01                	mov    (%ecx),%eax
 80489ec:	8b 59 04             	mov    0x4(%ecx),%ebx
 80489ef:	83 f8 01             	cmp    $0x1,%eax
 80489f2:	75 0c                	jne    8048a00 <main+0x25>
 80489f4:	a1 c0 c3 04 08       	mov    0x804c3c0,%eax
 80489f9:	a3 d0 c3 04 08       	mov    %eax,0x804c3d0
 80489fe:	eb 5b                	jmp    8048a5b <main+0x80>
 8048a00:	83 f8 02             	cmp    $0x2,%eax
 8048a03:	75 39                	jne    8048a3e <main+0x63>
 8048a05:	83 ec 08             	sub    $0x8,%esp
 8048a08:	68 88 9f 04 08       	push   $0x8049f88
 8048a0d:	ff 73 04             	pushl  0x4(%ebx)
 8048a10:	e8 0b fe ff ff       	call   8048820 <fopen@plt>
 8048a15:	a3 d0 c3 04 08       	mov    %eax,0x804c3d0
 8048a1a:	83 c4 10             	add    $0x10,%esp
 8048a1d:	85 c0                	test   %eax,%eax
 8048a1f:	75 3a                	jne    8048a5b <main+0x80>
 8048a21:	ff 73 04             	pushl  0x4(%ebx)
 8048a24:	ff 33                	pushl  (%ebx)
 8048a26:	68 8a 9f 04 08       	push   $0x8049f8a
 8048a2b:	6a 01                	push   $0x1
 8048a2d:	e8 0e fe ff ff       	call   8048840 <__printf_chk@plt>
 8048a32:	c7 04 24 08 00 00 00 	movl   $0x8,(%esp)
 8048a39:	e8 a2 fd ff ff       	call   80487e0 <exit@plt>
 8048a3e:	83 ec 04             	sub    $0x4,%esp
 8048a41:	ff 33                	pushl  (%ebx)
 8048a43:	68 a7 9f 04 08       	push   $0x8049fa7
 8048a48:	6a 01                	push   $0x1
 8048a4a:	e8 f1 fd ff ff       	call   8048840 <__printf_chk@plt>
 8048a4f:	c7 04 24 08 00 00 00 	movl   $0x8,(%esp)
 8048a56:	e8 85 fd ff ff       	call   80487e0 <exit@plt>
 8048a5b:	e8 58 06 00 00       	call   80490b8 <initialize_bomb>
 8048a60:	83 ec 0c             	sub    $0xc,%esp
 8048a63:	68 0c a0 04 08       	push   $0x804a00c
 8048a68:	e8 53 fd ff ff       	call   80487c0 <puts@plt>
 8048a6d:	c7 04 24 48 a0 04 08 	movl   $0x804a048,(%esp)
 8048a74:	e8 47 fd ff ff       	call   80487c0 <puts@plt>
 8048a79:	e8 35 07 00 00       	call   80491b3 <read_line>
 8048a7e:	89 04 24             	mov    %eax,(%esp)
 8048a81:	e8 aa 00 00 00       	call   8048b30 <phase_1>
 8048a86:	e8 2b 08 00 00       	call   80492b6 <phase_defused>
 8048a8b:	c7 04 24 74 a0 04 08 	movl   $0x804a074,(%esp)
 8048a92:	e8 29 fd ff ff       	call   80487c0 <puts@plt>
 8048a97:	e8 17 07 00 00       	call   80491b3 <read_line>
 8048a9c:	89 04 24             	mov    %eax,(%esp)
 8048a9f:	e8 ad 00 00 00       	call   8048b51 <phase_2>
 8048aa4:	e8 0d 08 00 00       	call   80492b6 <phase_defused>
 8048aa9:	c7 04 24 c1 9f 04 08 	movl   $0x8049fc1,(%esp)
 8048ab0:	e8 0b fd ff ff       	call   80487c0 <puts@plt>
 8048ab5:	e8 f9 06 00 00       	call   80491b3 <read_line>
 8048aba:	89 04 24             	mov    %eax,(%esp)
 8048abd:	e8 f1 00 00 00       	call   8048bb3 <phase_3>
 8048ac2:	e8 ef 07 00 00       	call   80492b6 <phase_defused>
 8048ac7:	c7 04 24 df 9f 04 08 	movl   $0x8049fdf,(%esp)
 8048ace:	e8 ed fc ff ff       	call   80487c0 <puts@plt>
 8048ad3:	e8 db 06 00 00       	call   80491b3 <read_line>
 8048ad8:	89 04 24             	mov    %eax,(%esp)
 8048adb:	e8 44 02 00 00       	call   8048d24 <phase_4>
 8048ae0:	e8 d1 07 00 00       	call   80492b6 <phase_defused>
 8048ae5:	c7 04 24 a0 a0 04 08 	movl   $0x804a0a0,(%esp)
 8048aec:	e8 cf fc ff ff       	call   80487c0 <puts@plt>
 8048af1:	e8 bd 06 00 00       	call   80491b3 <read_line>
 8048af6:	89 04 24             	mov    %eax,(%esp)
 8048af9:	e8 94 02 00 00       	call   8048d92 <phase_5>
 8048afe:	e8 b3 07 00 00       	call   80492b6 <phase_defused>
 8048b03:	c7 04 24 ee 9f 04 08 	movl   $0x8049fee,(%esp)
 8048b0a:	e8 b1 fc ff ff       	call   80487c0 <puts@plt>
 8048b0f:	e8 9f 06 00 00       	call   80491b3 <read_line>
 8048b14:	89 04 24             	mov    %eax,(%esp)
 8048b17:	e8 fb 02 00 00       	call   8048e17 <phase_6>
 8048b1c:	e8 95 07 00 00       	call   80492b6 <phase_defused>
 8048b21:	b8 00 00 00 00       	mov    $0x0,%eax
 8048b26:	8d 65 f8             	lea    -0x8(%ebp),%esp
 8048b29:	59                   	pop    %ecx
 8048b2a:	5b                   	pop    %ebx
 8048b2b:	5d                   	pop    %ebp
 8048b2c:	8d 61 fc             	lea    -0x4(%ecx),%esp
 8048b2f:	c3                   	ret    

08048b30 <phase_1>:
 8048b30:	55                   	push   %ebp
 8048b31:	89 e5                	mov    %esp,%ebp
 8048b33:	83 ec 10             	sub    $0x10,%esp
 8048b36:	68 c4 a0 04 08       	push   $0x804a0c4
 8048b3b:	ff 75 08             	pushl  0x8(%ebp)
 8048b3e:	e8 0b 05 00 00       	call   804904e <strings_not_equal>
 8048b43:	83 c4 10             	add    $0x10,%esp
 8048b46:	85 c0                	test   %eax,%eax
 8048b48:	74 05                	je     8048b4f <phase_1+0x1f>
 8048b4a:	e8 02 06 00 00       	call   8049151 <explode_bomb>
 8048b4f:	c9                   	leave  
 8048b50:	c3                   	ret    

08048b51 <phase_2>:
 8048b51:	55                   	push   %ebp
 8048b52:	89 e5                	mov    %esp,%ebp
 8048b54:	53                   	push   %ebx
 8048b55:	83 ec 2c             	sub    $0x2c,%esp
 8048b58:	65 a1 14 00 00 00    	mov    %gs:0x14,%eax
 8048b5e:	89 45 f4             	mov    %eax,-0xc(%ebp)
 8048b61:	31 c0                	xor    %eax,%eax
 8048b63:	8d 45 dc             	lea    -0x24(%ebp),%eax
 8048b66:	50                   	push   %eax
 8048b67:	ff 75 08             	pushl  0x8(%ebp)
 8048b6a:	e8 0a 06 00 00       	call   8049179 <read_six_numbers>
 8048b6f:	83 c4 10             	add    $0x10,%esp
 8048b72:	83 7d dc 05          	cmpl   $0x5,-0x24(%ebp)
 8048b76:	76 05                	jbe    8048b7d <phase_2+0x2c>
 8048b78:	e8 d4 05 00 00       	call   8049151 <explode_bomb>
 8048b7d:	bb 01 00 00 00       	mov    $0x1,%ebx
 8048b82:	8b 44 9d d8          	mov    -0x28(%ebp,%ebx,4),%eax
 8048b86:	89 d9                	mov    %ebx,%ecx
 8048b88:	d3 e0                	shl    %cl,%eax
 8048b8a:	39 44 9d dc          	cmp    %eax,-0x24(%ebp,%ebx,4)
 8048b8e:	74 05                	je     8048b95 <phase_2+0x44>
 8048b90:	e8 bc 05 00 00       	call   8049151 <explode_bomb>
 8048b95:	83 c3 01             	add    $0x1,%ebx
 8048b98:	83 fb 06             	cmp    $0x6,%ebx
 8048b9b:	75 e5                	jne    8048b82 <phase_2+0x31>
 8048b9d:	8b 45 f4             	mov    -0xc(%ebp),%eax
 8048ba0:	65 33 05 14 00 00 00 	xor    %gs:0x14,%eax
 8048ba7:	74 05                	je     8048bae <phase_2+0x5d>
 8048ba9:	e8 e2 fb ff ff       	call   8048790 <__stack_chk_fail@plt>
 8048bae:	8b 5d fc             	mov    -0x4(%ebp),%ebx
 8048bb1:	c9                   	leave  
 8048bb2:	c3                   	ret    

08048bb3 <phase_3>:
 8048bb3:	55                   	push   %ebp
 8048bb4:	89 e5                	mov    %esp,%ebp
 8048bb6:	83 ec 24             	sub    $0x24,%esp
 8048bb9:	65 a1 14 00 00 00    	mov    %gs:0x14,%eax
 8048bbf:	89 45 f4             	mov    %eax,-0xc(%ebp)
 8048bc2:	31 c0                	xor    %eax,%eax
 8048bc4:	8d 45 f0             	lea    -0x10(%ebp),%eax
 8048bc7:	50                   	push   %eax
 8048bc8:	8d 45 eb             	lea    -0x15(%ebp),%eax
 8048bcb:	50                   	push   %eax
 8048bcc:	8d 45 ec             	lea    -0x14(%ebp),%eax
 8048bcf:	50                   	push   %eax
 8048bd0:	68 0e a1 04 08       	push   $0x804a10e
 8048bd5:	ff 75 08             	pushl  0x8(%ebp)
 8048bd8:	e8 33 fc ff ff       	call   8048810 <__isoc99_sscanf@plt>
 8048bdd:	83 c4 20             	add    $0x20,%esp
 8048be0:	83 f8 02             	cmp    $0x2,%eax
 8048be3:	7f 05                	jg     8048bea <phase_3+0x37>
 8048be5:	e8 67 05 00 00       	call   8049151 <explode_bomb>
 8048bea:	83 7d ec 07          	cmpl   $0x7,-0x14(%ebp)
 8048bee:	0f 87 ad 00 00 00    	ja     8048ca1 <phase_3+0xee>
 8048bf4:	8b 45 ec             	mov    -0x14(%ebp),%eax
 8048bf7:	ff 24 85 20 a1 04 08 	jmp    *0x804a120(,%eax,4)
 8048bfe:	b8 73 00 00 00       	mov    $0x73,%eax
 8048c03:	81 7d f0 ee 03 00 00 	cmpl   $0x3ee,-0x10(%ebp)
 8048c0a:	0f 84 9b 00 00 00    	je     8048cab <phase_3+0xf8>
 8048c10:	e8 3c 05 00 00       	call   8049151 <explode_bomb>
 8048c15:	b8 73 00 00 00       	mov    $0x73,%eax
 8048c1a:	e9 8c 00 00 00       	jmp    8048cab <phase_3+0xf8>
 8048c1f:	b8 6b 00 00 00       	mov    $0x6b,%eax
 8048c24:	81 7d f0 f1 00 00 00 	cmpl   $0xf1,-0x10(%ebp)
 8048c2b:	74 7e                	je     8048cab <phase_3+0xf8>
 8048c2d:	e8 1f 05 00 00       	call   8049151 <explode_bomb>
 8048c32:	b8 6b 00 00 00       	mov    $0x6b,%eax
 8048c37:	eb 72                	jmp    8048cab <phase_3+0xf8>
 8048c39:	b8 65 00 00 00       	mov    $0x65,%eax
 8048c3e:	81 7d f0 27 03 00 00 	cmpl   $0x327,-0x10(%ebp)
 8048c45:	74 64                	je     8048cab <phase_3+0xf8>
 8048c47:	e8 05 05 00 00       	call   8049151 <explode_bomb>
 8048c4c:	b8 65 00 00 00       	mov    $0x65,%eax
 8048c51:	eb 58                	jmp    8048cab <phase_3+0xf8>
 8048c53:	b8 7a 00 00 00       	mov    $0x7a,%eax
 8048c58:	81 7d f0 f9 00 00 00 	cmpl   $0xf9,-0x10(%ebp)
 8048c5f:	74 4a                	je     8048cab <phase_3+0xf8>
 8048c61:	e8 eb 04 00 00       	call   8049151 <explode_bomb>
 8048c66:	b8 7a 00 00 00       	mov    $0x7a,%eax
 8048c6b:	eb 3e                	jmp    8048cab <phase_3+0xf8>
 8048c6d:	b8 65 00 00 00       	mov    $0x65,%eax
 8048c72:	81 7d f0 b3 03 00 00 	cmpl   $0x3b3,-0x10(%ebp)
 8048c79:	74 30                	je     8048cab <phase_3+0xf8>
 8048c7b:	e8 d1 04 00 00       	call   8049151 <explode_bomb>
 8048c80:	b8 65 00 00 00       	mov    $0x65,%eax
 8048c85:	eb 24                	jmp    8048cab <phase_3+0xf8>
 8048c87:	b8 7a 00 00 00       	mov    $0x7a,%eax
 8048c8c:	81 7d f0 a6 02 00 00 	cmpl   $0x2a6,-0x10(%ebp)
 8048c93:	74 16                	je     8048cab <phase_3+0xf8>
 8048c95:	e8 b7 04 00 00       	call   8049151 <explode_bomb>
 8048c9a:	b8 7a 00 00 00       	mov    $0x7a,%eax
 8048c9f:	eb 0a                	jmp    8048cab <phase_3+0xf8>
 8048ca1:	e8 ab 04 00 00       	call   8049151 <explode_bomb>
 8048ca6:	b8 72 00 00 00       	mov    $0x72,%eax
 8048cab:	3a 45 eb             	cmp    -0x15(%ebp),%al
 8048cae:	74 05                	je     8048cb5 <phase_3+0x102>
 8048cb0:	e8 9c 04 00 00       	call   8049151 <explode_bomb>
 8048cb5:	8b 45 f4             	mov    -0xc(%ebp),%eax
 8048cb8:	65 33 05 14 00 00 00 	xor    %gs:0x14,%eax
 8048cbf:	74 05                	je     8048cc6 <phase_3+0x113>
 8048cc1:	e8 ca fa ff ff       	call   8048790 <__stack_chk_fail@plt>
 8048cc6:	c9                   	leave  
 8048cc7:	c3                   	ret    

08048cc8 <func4>:
 8048cc8:	55                   	push   %ebp
 8048cc9:	89 e5                	mov    %esp,%ebp
 8048ccb:	56                   	push   %esi
 8048ccc:	53                   	push   %ebx
 8048ccd:	8b 4d 08             	mov    0x8(%ebp),%ecx
 8048cd0:	8b 5d 0c             	mov    0xc(%ebp),%ebx
 8048cd3:	8b 75 10             	mov    0x10(%ebp),%esi
 8048cd6:	89 f0                	mov    %esi,%eax
 8048cd8:	29 d8                	sub    %ebx,%eax
 8048cda:	89 c2                	mov    %eax,%edx
 8048cdc:	c1 ea 1f             	shr    $0x1f,%edx
 8048cdf:	01 d0                	add    %edx,%eax
 8048ce1:	d1 f8                	sar    %eax
 8048ce3:	8d 14 18             	lea    (%eax,%ebx,1),%edx
 8048ce6:	39 ca                	cmp    %ecx,%edx
 8048ce8:	7e 15                	jle    8048cff <func4+0x37>
 8048cea:	83 ec 04             	sub    $0x4,%esp
 8048ced:	83 ea 01             	sub    $0x1,%edx
 8048cf0:	52                   	push   %edx
 8048cf1:	53                   	push   %ebx
 8048cf2:	51                   	push   %ecx
 8048cf3:	e8 d0 ff ff ff       	call   8048cc8 <func4>
 8048cf8:	83 c4 10             	add    $0x10,%esp
 8048cfb:	01 c0                	add    %eax,%eax
 8048cfd:	eb 1e                	jmp    8048d1d <func4+0x55>
 8048cff:	b8 00 00 00 00       	mov    $0x0,%eax
 8048d04:	39 ca                	cmp    %ecx,%edx
 8048d06:	7d 15                	jge    8048d1d <func4+0x55>
 8048d08:	83 ec 04             	sub    $0x4,%esp
 8048d0b:	56                   	push   %esi
 8048d0c:	83 c2 01             	add    $0x1,%edx
 8048d0f:	52                   	push   %edx
 8048d10:	51                   	push   %ecx
 8048d11:	e8 b2 ff ff ff       	call   8048cc8 <func4>
 8048d16:	83 c4 10             	add    $0x10,%esp
 8048d19:	8d 44 00 01          	lea    0x1(%eax,%eax,1),%eax
 8048d1d:	8d 65 f8             	lea    -0x8(%ebp),%esp
 8048d20:	5b                   	pop    %ebx
 8048d21:	5e                   	pop    %esi
 8048d22:	5d                   	pop    %ebp
 8048d23:	c3                   	ret    

08048d24 <phase_4>:
 8048d24:	55                   	push   %ebp
 8048d25:	89 e5                	mov    %esp,%ebp
 8048d27:	83 ec 18             	sub    $0x18,%esp
 8048d2a:	65 a1 14 00 00 00    	mov    %gs:0x14,%eax
 8048d30:	89 45 f4             	mov    %eax,-0xc(%ebp)
 8048d33:	31 c0                	xor    %eax,%eax
 8048d35:	8d 45 f0             	lea    -0x10(%ebp),%eax
 8048d38:	50                   	push   %eax
 8048d39:	8d 45 ec             	lea    -0x14(%ebp),%eax
 8048d3c:	50                   	push   %eax
 8048d3d:	68 8f a2 04 08       	push   $0x804a28f
 8048d42:	ff 75 08             	pushl  0x8(%ebp)
 8048d45:	e8 c6 fa ff ff       	call   8048810 <__isoc99_sscanf@plt>
 8048d4a:	83 c4 10             	add    $0x10,%esp
 8048d4d:	83 f8 02             	cmp    $0x2,%eax
 8048d50:	75 06                	jne    8048d58 <phase_4+0x34>
 8048d52:	83 7d ec 0e          	cmpl   $0xe,-0x14(%ebp)
 8048d56:	76 05                	jbe    8048d5d <phase_4+0x39>
 8048d58:	e8 f4 03 00 00       	call   8049151 <explode_bomb>
 8048d5d:	83 ec 04             	sub    $0x4,%esp
 8048d60:	6a 0e                	push   $0xe
 8048d62:	6a 00                	push   $0x0
 8048d64:	ff 75 ec             	pushl  -0x14(%ebp)
 8048d67:	e8 5c ff ff ff       	call   8048cc8 <func4>
 8048d6c:	83 c4 10             	add    $0x10,%esp
 8048d6f:	83 f8 01             	cmp    $0x1,%eax
 8048d72:	75 06                	jne    8048d7a <phase_4+0x56>
 8048d74:	83 7d f0 01          	cmpl   $0x1,-0x10(%ebp)
 8048d78:	74 05                	je     8048d7f <phase_4+0x5b>
 8048d7a:	e8 d2 03 00 00       	call   8049151 <explode_bomb>
 8048d7f:	8b 45 f4             	mov    -0xc(%ebp),%eax
 8048d82:	65 33 05 14 00 00 00 	xor    %gs:0x14,%eax
 8048d89:	74 05                	je     8048d90 <phase_4+0x6c>
 8048d8b:	e8 00 fa ff ff       	call   8048790 <__stack_chk_fail@plt>
 8048d90:	c9                   	leave  
 8048d91:	c3                   	ret    

08048d92 <phase_5>:
 8048d92:	55                   	push   %ebp
 8048d93:	89 e5                	mov    %esp,%ebp
 8048d95:	83 ec 18             	sub    $0x18,%esp
 8048d98:	65 a1 14 00 00 00    	mov    %gs:0x14,%eax
 8048d9e:	89 45 f4             	mov    %eax,-0xc(%ebp)
 8048da1:	31 c0                	xor    %eax,%eax
 8048da3:	8d 45 f0             	lea    -0x10(%ebp),%eax
 8048da6:	50                   	push   %eax
 8048da7:	8d 45 ec             	lea    -0x14(%ebp),%eax
 8048daa:	50                   	push   %eax
 8048dab:	68 8f a2 04 08       	push   $0x804a28f
 8048db0:	ff 75 08             	pushl  0x8(%ebp)
 8048db3:	e8 58 fa ff ff       	call   8048810 <__isoc99_sscanf@plt>
 8048db8:	83 c4 10             	add    $0x10,%esp
 8048dbb:	83 f8 01             	cmp    $0x1,%eax
 8048dbe:	7f 05                	jg     8048dc5 <phase_5+0x33>
 8048dc0:	e8 8c 03 00 00       	call   8049151 <explode_bomb>
 8048dc5:	8b 45 ec             	mov    -0x14(%ebp),%eax
 8048dc8:	83 e0 0f             	and    $0xf,%eax
 8048dcb:	89 45 ec             	mov    %eax,-0x14(%ebp)
 8048dce:	83 f8 0f             	cmp    $0xf,%eax
 8048dd1:	74 2c                	je     8048dff <phase_5+0x6d>
 8048dd3:	b9 00 00 00 00       	mov    $0x0,%ecx
 8048dd8:	ba 00 00 00 00       	mov    $0x0,%edx
 8048ddd:	83 c2 01             	add    $0x1,%edx
 8048de0:	8b 04 85 40 a1 04 08 	mov    0x804a140(,%eax,4),%eax
 8048de7:	01 c1                	add    %eax,%ecx
 8048de9:	83 f8 0f             	cmp    $0xf,%eax
 8048dec:	75 ef                	jne    8048ddd <phase_5+0x4b>
 8048dee:	c7 45 ec 0f 00 00 00 	movl   $0xf,-0x14(%ebp)
 8048df5:	83 fa 0f             	cmp    $0xf,%edx
 8048df8:	75 05                	jne    8048dff <phase_5+0x6d>
 8048dfa:	3b 4d f0             	cmp    -0x10(%ebp),%ecx
 8048dfd:	74 05                	je     8048e04 <phase_5+0x72>
 8048dff:	e8 4d 03 00 00       	call   8049151 <explode_bomb>
 8048e04:	8b 45 f4             	mov    -0xc(%ebp),%eax
 8048e07:	65 33 05 14 00 00 00 	xor    %gs:0x14,%eax
 8048e0e:	74 05                	je     8048e15 <phase_5+0x83>
 8048e10:	e8 7b f9 ff ff       	call   8048790 <__stack_chk_fail@plt>
 8048e15:	c9                   	leave  
 8048e16:	c3                   	ret    

08048e17 <phase_6>:
 8048e17:	55                   	push   %ebp
 8048e18:	89 e5                	mov    %esp,%ebp
 8048e1a:	56                   	push   %esi
 8048e1b:	53                   	push   %ebx
 8048e1c:	83 ec 48             	sub    $0x48,%esp
 8048e1f:	65 a1 14 00 00 00    	mov    %gs:0x14,%eax
 8048e25:	89 45 f4             	mov    %eax,-0xc(%ebp)
 8048e28:	31 c0                	xor    %eax,%eax
 8048e2a:	8d 45 c4             	lea    -0x3c(%ebp),%eax
 8048e2d:	50                   	push   %eax
 8048e2e:	ff 75 08             	pushl  0x8(%ebp)
 8048e31:	e8 43 03 00 00       	call   8049179 <read_six_numbers>
 8048e36:	83 c4 10             	add    $0x10,%esp
 8048e39:	be 00 00 00 00       	mov    $0x0,%esi
 8048e3e:	8b 44 b5 c4          	mov    -0x3c(%ebp,%esi,4),%eax
 8048e42:	83 e8 01             	sub    $0x1,%eax
 8048e45:	83 f8 05             	cmp    $0x5,%eax
 8048e48:	76 05                	jbe    8048e4f <phase_6+0x38>
 8048e4a:	e8 02 03 00 00       	call   8049151 <explode_bomb>
 8048e4f:	83 c6 01             	add    $0x1,%esi
 8048e52:	83 fe 06             	cmp    $0x6,%esi
 8048e55:	74 33                	je     8048e8a <phase_6+0x73>
 8048e57:	89 f3                	mov    %esi,%ebx
 8048e59:	8b 44 9d c4          	mov    -0x3c(%ebp,%ebx,4),%eax
 8048e5d:	39 44 b5 c0          	cmp    %eax,-0x40(%ebp,%esi,4)
 8048e61:	75 05                	jne    8048e68 <phase_6+0x51>
 8048e63:	e8 e9 02 00 00       	call   8049151 <explode_bomb>
 8048e68:	83 c3 01             	add    $0x1,%ebx
 8048e6b:	83 fb 05             	cmp    $0x5,%ebx
 8048e6e:	7e e9                	jle    8048e59 <phase_6+0x42>
 8048e70:	eb cc                	jmp    8048e3e <phase_6+0x27>
 8048e72:	8b 52 08             	mov    0x8(%edx),%edx
 8048e75:	83 c0 01             	add    $0x1,%eax
 8048e78:	39 c8                	cmp    %ecx,%eax
 8048e7a:	75 f6                	jne    8048e72 <phase_6+0x5b>
 8048e7c:	89 54 b5 dc          	mov    %edx,-0x24(%ebp,%esi,4)
 8048e80:	83 c3 01             	add    $0x1,%ebx
 8048e83:	83 fb 06             	cmp    $0x6,%ebx
 8048e86:	75 07                	jne    8048e8f <phase_6+0x78>
 8048e88:	eb 1c                	jmp    8048ea6 <phase_6+0x8f>
 8048e8a:	bb 00 00 00 00       	mov    $0x0,%ebx
 8048e8f:	89 de                	mov    %ebx,%esi
 8048e91:	8b 4c 9d c4          	mov    -0x3c(%ebp,%ebx,4),%ecx
 8048e95:	b8 01 00 00 00       	mov    $0x1,%eax
 8048e9a:	ba 3c c1 04 08       	mov    $0x804c13c,%edx
 8048e9f:	83 f9 01             	cmp    $0x1,%ecx
 8048ea2:	7f ce                	jg     8048e72 <phase_6+0x5b>
 8048ea4:	eb d6                	jmp    8048e7c <phase_6+0x65>
 8048ea6:	8b 5d dc             	mov    -0x24(%ebp),%ebx
 8048ea9:	8d 45 dc             	lea    -0x24(%ebp),%eax
 8048eac:	8d 75 f0             	lea    -0x10(%ebp),%esi
 8048eaf:	89 d9                	mov    %ebx,%ecx
 8048eb1:	8b 50 04             	mov    0x4(%eax),%edx
 8048eb4:	89 51 08             	mov    %edx,0x8(%ecx)
 8048eb7:	83 c0 04             	add    $0x4,%eax
 8048eba:	89 d1                	mov    %edx,%ecx
 8048ebc:	39 f0                	cmp    %esi,%eax
 8048ebe:	75 f1                	jne    8048eb1 <phase_6+0x9a>
 8048ec0:	c7 42 08 00 00 00 00 	movl   $0x0,0x8(%edx)
 8048ec7:	be 05 00 00 00       	mov    $0x5,%esi
 8048ecc:	8b 43 08             	mov    0x8(%ebx),%eax
 8048ecf:	8b 00                	mov    (%eax),%eax
 8048ed1:	39 03                	cmp    %eax,(%ebx)
 8048ed3:	7e 05                	jle    8048eda <phase_6+0xc3>
 8048ed5:	e8 77 02 00 00       	call   8049151 <explode_bomb>
 8048eda:	8b 5b 08             	mov    0x8(%ebx),%ebx
 8048edd:	83 ee 01             	sub    $0x1,%esi
 8048ee0:	75 ea                	jne    8048ecc <phase_6+0xb5>
 8048ee2:	8b 45 f4             	mov    -0xc(%ebp),%eax
 8048ee5:	65 33 05 14 00 00 00 	xor    %gs:0x14,%eax
 8048eec:	74 05                	je     8048ef3 <phase_6+0xdc>
 8048eee:	e8 9d f8 ff ff       	call   8048790 <__stack_chk_fail@plt>
 8048ef3:	8d 65 f8             	lea    -0x8(%ebp),%esp
 8048ef6:	5b                   	pop    %ebx
 8048ef7:	5e                   	pop    %esi
 8048ef8:	5d                   	pop    %ebp
 8048ef9:	c3                   	ret    

08048efa <fun7>:
 8048efa:	55                   	push   %ebp
 8048efb:	89 e5                	mov    %esp,%ebp
 8048efd:	53                   	push   %ebx
 8048efe:	83 ec 04             	sub    $0x4,%esp
 8048f01:	8b 55 08             	mov    0x8(%ebp),%edx
 8048f04:	8b 4d 0c             	mov    0xc(%ebp),%ecx
 8048f07:	85 d2                	test   %edx,%edx
 8048f09:	74 37                	je     8048f42 <fun7+0x48>
 8048f0b:	8b 1a                	mov    (%edx),%ebx
 8048f0d:	39 cb                	cmp    %ecx,%ebx
 8048f0f:	7e 13                	jle    8048f24 <fun7+0x2a>
 8048f11:	83 ec 08             	sub    $0x8,%esp
 8048f14:	51                   	push   %ecx
 8048f15:	ff 72 04             	pushl  0x4(%edx)
 8048f18:	e8 dd ff ff ff       	call   8048efa <fun7>
 8048f1d:	83 c4 10             	add    $0x10,%esp
 8048f20:	01 c0                	add    %eax,%eax
 8048f22:	eb 23                	jmp    8048f47 <fun7+0x4d>
 8048f24:	b8 00 00 00 00       	mov    $0x0,%eax
 8048f29:	39 cb                	cmp    %ecx,%ebx
 8048f2b:	74 1a                	je     8048f47 <fun7+0x4d>
 8048f2d:	83 ec 08             	sub    $0x8,%esp
 8048f30:	51                   	push   %ecx
 8048f31:	ff 72 08             	pushl  0x8(%edx)
 8048f34:	e8 c1 ff ff ff       	call   8048efa <fun7>
 8048f39:	83 c4 10             	add    $0x10,%esp
 8048f3c:	8d 44 00 01          	lea    0x1(%eax,%eax,1),%eax
 8048f40:	eb 05                	jmp    8048f47 <fun7+0x4d>
 8048f42:	b8 ff ff ff ff       	mov    $0xffffffff,%eax
 8048f47:	8b 5d fc             	mov    -0x4(%ebp),%ebx
 8048f4a:	c9                   	leave  
 8048f4b:	c3                   	ret    

08048f4c <secret_phase>:
 8048f4c:	55                   	push   %ebp
 8048f4d:	89 e5                	mov    %esp,%ebp
 8048f4f:	53                   	push   %ebx
 8048f50:	83 ec 04             	sub    $0x4,%esp
 8048f53:	e8 5b 02 00 00       	call   80491b3 <read_line>
 8048f58:	83 ec 04             	sub    $0x4,%esp
 8048f5b:	6a 0a                	push   $0xa
 8048f5d:	6a 00                	push   $0x0
 8048f5f:	50                   	push   %eax
 8048f60:	e8 1b f9 ff ff       	call   8048880 <strtol@plt>
 8048f65:	89 c3                	mov    %eax,%ebx
 8048f67:	8d 40 ff             	lea    -0x1(%eax),%eax
 8048f6a:	83 c4 10             	add    $0x10,%esp
 8048f6d:	3d e8 03 00 00       	cmp    $0x3e8,%eax
 8048f72:	76 05                	jbe    8048f79 <secret_phase+0x2d>
 8048f74:	e8 d8 01 00 00       	call   8049151 <explode_bomb>
 8048f79:	83 ec 08             	sub    $0x8,%esp
 8048f7c:	53                   	push   %ebx
 8048f7d:	68 88 c0 04 08       	push   $0x804c088
 8048f82:	e8 73 ff ff ff       	call   8048efa <fun7>
 8048f87:	83 c4 10             	add    $0x10,%esp
 8048f8a:	83 f8 03             	cmp    $0x3,%eax
 8048f8d:	74 05                	je     8048f94 <secret_phase+0x48>
 8048f8f:	e8 bd 01 00 00       	call   8049151 <explode_bomb>
 8048f94:	83 ec 0c             	sub    $0xc,%esp
 8048f97:	68 e8 a0 04 08       	push   $0x804a0e8
 8048f9c:	e8 1f f8 ff ff       	call   80487c0 <puts@plt>
 8048fa1:	e8 10 03 00 00       	call   80492b6 <phase_defused>
 8048fa6:	83 c4 10             	add    $0x10,%esp
 8048fa9:	8b 5d fc             	mov    -0x4(%ebp),%ebx
 8048fac:	c9                   	leave  
 8048fad:	c3                   	ret    

08048fae <sig_handler>:
 8048fae:	55                   	push   %ebp
 8048faf:	89 e5                	mov    %esp,%ebp
 8048fb1:	83 ec 14             	sub    $0x14,%esp
 8048fb4:	68 80 a1 04 08       	push   $0x804a180
 8048fb9:	e8 02 f8 ff ff       	call   80487c0 <puts@plt>
 8048fbe:	c7 04 24 03 00 00 00 	movl   $0x3,(%esp)
 8048fc5:	e8 a6 f7 ff ff       	call   8048770 <sleep@plt>
 8048fca:	83 c4 08             	add    $0x8,%esp
 8048fcd:	68 42 a2 04 08       	push   $0x804a242
 8048fd2:	6a 01                	push   $0x1
 8048fd4:	e8 67 f8 ff ff       	call   8048840 <__printf_chk@plt>
 8048fd9:	83 c4 04             	add    $0x4,%esp
 8048fdc:	ff 35 c4 c3 04 08    	pushl  0x804c3c4
 8048fe2:	e8 59 f7 ff ff       	call   8048740 <fflush@plt>
 8048fe7:	c7 04 24 01 00 00 00 	movl   $0x1,(%esp)
 8048fee:	e8 7d f7 ff ff       	call   8048770 <sleep@plt>
 8048ff3:	c7 04 24 4a a2 04 08 	movl   $0x804a24a,(%esp)
 8048ffa:	e8 c1 f7 ff ff       	call   80487c0 <puts@plt>
 8048fff:	c7 04 24 10 00 00 00 	movl   $0x10,(%esp)
 8049006:	e8 d5 f7 ff ff       	call   80487e0 <exit@plt>

0804900b <invalid_phase>:
 804900b:	55                   	push   %ebp
 804900c:	89 e5                	mov    %esp,%ebp
 804900e:	83 ec 0c             	sub    $0xc,%esp
 8049011:	ff 75 08             	pushl  0x8(%ebp)
 8049014:	68 52 a2 04 08       	push   $0x804a252
 8049019:	6a 01                	push   $0x1
 804901b:	e8 20 f8 ff ff       	call   8048840 <__printf_chk@plt>
 8049020:	c7 04 24 08 00 00 00 	movl   $0x8,(%esp)
 8049027:	e8 b4 f7 ff ff       	call   80487e0 <exit@plt>

0804902c <string_length>:
 804902c:	55                   	push   %ebp
 804902d:	89 e5                	mov    %esp,%ebp
 804902f:	8b 55 08             	mov    0x8(%ebp),%edx
 8049032:	80 3a 00             	cmpb   $0x0,(%edx)
 8049035:	74 10                	je     8049047 <string_length+0x1b>
 8049037:	b8 00 00 00 00       	mov    $0x0,%eax
 804903c:	83 c0 01             	add    $0x1,%eax
 804903f:	80 3c 02 00          	cmpb   $0x0,(%edx,%eax,1)
 8049043:	75 f7                	jne    804903c <string_length+0x10>
 8049045:	eb 05                	jmp    804904c <string_length+0x20>
 8049047:	b8 00 00 00 00       	mov    $0x0,%eax
 804904c:	5d                   	pop    %ebp
 804904d:	c3                   	ret    

0804904e <strings_not_equal>:
 804904e:	55                   	push   %ebp
 804904f:	89 e5                	mov    %esp,%ebp
 8049051:	57                   	push   %edi
 8049052:	56                   	push   %esi
 8049053:	53                   	push   %ebx
 8049054:	8b 5d 08             	mov    0x8(%ebp),%ebx
 8049057:	8b 75 0c             	mov    0xc(%ebp),%esi
 804905a:	53                   	push   %ebx
 804905b:	e8 cc ff ff ff       	call   804902c <string_length>
 8049060:	89 c7                	mov    %eax,%edi
 8049062:	89 34 24             	mov    %esi,(%esp)
 8049065:	e8 c2 ff ff ff       	call   804902c <string_length>
 804906a:	83 c4 04             	add    $0x4,%esp
 804906d:	ba 01 00 00 00       	mov    $0x1,%edx
 8049072:	39 c7                	cmp    %eax,%edi
 8049074:	75 38                	jne    80490ae <strings_not_equal+0x60>
 8049076:	0f b6 03             	movzbl (%ebx),%eax
 8049079:	84 c0                	test   %al,%al
 804907b:	74 1e                	je     804909b <strings_not_equal+0x4d>
 804907d:	3a 06                	cmp    (%esi),%al
 804907f:	74 06                	je     8049087 <strings_not_equal+0x39>
 8049081:	eb 1f                	jmp    80490a2 <strings_not_equal+0x54>
 8049083:	3a 06                	cmp    (%esi),%al
 8049085:	75 22                	jne    80490a9 <strings_not_equal+0x5b>
 8049087:	83 c3 01             	add    $0x1,%ebx
 804908a:	83 c6 01             	add    $0x1,%esi
 804908d:	0f b6 03             	movzbl (%ebx),%eax
 8049090:	84 c0                	test   %al,%al
 8049092:	75 ef                	jne    8049083 <strings_not_equal+0x35>
 8049094:	ba 00 00 00 00       	mov    $0x0,%edx
 8049099:	eb 13                	jmp    80490ae <strings_not_equal+0x60>
 804909b:	ba 00 00 00 00       	mov    $0x0,%edx
 80490a0:	eb 0c                	jmp    80490ae <strings_not_equal+0x60>
 80490a2:	ba 01 00 00 00       	mov    $0x1,%edx
 80490a7:	eb 05                	jmp    80490ae <strings_not_equal+0x60>
 80490a9:	ba 01 00 00 00       	mov    $0x1,%edx
 80490ae:	89 d0                	mov    %edx,%eax
 80490b0:	8d 65 f4             	lea    -0xc(%ebp),%esp
 80490b3:	5b                   	pop    %ebx
 80490b4:	5e                   	pop    %esi
 80490b5:	5f                   	pop    %edi
 80490b6:	5d                   	pop    %ebp
 80490b7:	c3                   	ret    

080490b8 <initialize_bomb>:
 80490b8:	55                   	push   %ebp
 80490b9:	89 e5                	mov    %esp,%ebp
 80490bb:	83 ec 10             	sub    $0x10,%esp
 80490be:	68 ae 8f 04 08       	push   $0x8048fae
 80490c3:	6a 02                	push   $0x2
 80490c5:	e8 96 f6 ff ff       	call   8048760 <signal@plt>
 80490ca:	83 c4 10             	add    $0x10,%esp
 80490cd:	c9                   	leave  
 80490ce:	c3                   	ret    

080490cf <initialize_bomb_solve>:
 80490cf:	55                   	push   %ebp
 80490d0:	89 e5                	mov    %esp,%ebp
 80490d2:	5d                   	pop    %ebp
 80490d3:	c3                   	ret    

080490d4 <blank_line>:
 80490d4:	55                   	push   %ebp
 80490d5:	89 e5                	mov    %esp,%ebp
 80490d7:	56                   	push   %esi
 80490d8:	53                   	push   %ebx
 80490d9:	8b 75 08             	mov    0x8(%ebp),%esi
 80490dc:	eb 14                	jmp    80490f2 <blank_line+0x1e>
 80490de:	e8 cd f7 ff ff       	call   80488b0 <__ctype_b_loc@plt>
 80490e3:	83 c6 01             	add    $0x1,%esi
 80490e6:	0f be db             	movsbl %bl,%ebx
 80490e9:	8b 00                	mov    (%eax),%eax
 80490eb:	f6 44 58 01 20       	testb  $0x20,0x1(%eax,%ebx,2)
 80490f0:	74 0e                	je     8049100 <blank_line+0x2c>
 80490f2:	0f b6 1e             	movzbl (%esi),%ebx
 80490f5:	84 db                	test   %bl,%bl
 80490f7:	75 e5                	jne    80490de <blank_line+0xa>
 80490f9:	b8 01 00 00 00       	mov    $0x1,%eax
 80490fe:	eb 05                	jmp    8049105 <blank_line+0x31>
 8049100:	b8 00 00 00 00       	mov    $0x0,%eax
 8049105:	5b                   	pop    %ebx
 8049106:	5e                   	pop    %esi
 8049107:	5d                   	pop    %ebp
 8049108:	c3                   	ret    

08049109 <skip>:
 8049109:	55                   	push   %ebp
 804910a:	89 e5                	mov    %esp,%ebp
 804910c:	53                   	push   %ebx
 804910d:	83 ec 04             	sub    $0x4,%esp
 8049110:	83 ec 04             	sub    $0x4,%esp
 8049113:	ff 35 d0 c3 04 08    	pushl  0x804c3d0
 8049119:	6a 50                	push   $0x50
 804911b:	a1 cc c3 04 08       	mov    0x804c3cc,%eax
 8049120:	8d 04 80             	lea    (%eax,%eax,4),%eax
 8049123:	c1 e0 04             	shl    $0x4,%eax
 8049126:	05 e0 c3 04 08       	add    $0x804c3e0,%eax
 804912b:	50                   	push   %eax
 804912c:	e8 1f f6 ff ff       	call   8048750 <fgets@plt>
 8049131:	89 c3                	mov    %eax,%ebx
 8049133:	83 c4 10             	add    $0x10,%esp
 8049136:	85 c0                	test   %eax,%eax
 8049138:	74 10                	je     804914a <skip+0x41>
 804913a:	83 ec 0c             	sub    $0xc,%esp
 804913d:	50                   	push   %eax
 804913e:	e8 91 ff ff ff       	call   80490d4 <blank_line>
 8049143:	83 c4 10             	add    $0x10,%esp
 8049146:	85 c0                	test   %eax,%eax
 8049148:	75 c6                	jne    8049110 <skip+0x7>
 804914a:	89 d8                	mov    %ebx,%eax
 804914c:	8b 5d fc             	mov    -0x4(%ebp),%ebx
 804914f:	c9                   	leave  
 8049150:	c3                   	ret    

08049151 <explode_bomb>:
 8049151:	55                   	push   %ebp
 8049152:	89 e5                	mov    %esp,%ebp
 8049154:	83 ec 14             	sub    $0x14,%esp
 8049157:	68 63 a2 04 08       	push   $0x804a263
 804915c:	e8 5f f6 ff ff       	call   80487c0 <puts@plt>
 8049161:	c7 04 24 6c a2 04 08 	movl   $0x804a26c,(%esp)
 8049168:	e8 53 f6 ff ff       	call   80487c0 <puts@plt>
 804916d:	c7 04 24 08 00 00 00 	movl   $0x8,(%esp)
 8049174:	e8 67 f6 ff ff       	call   80487e0 <exit@plt>

08049179 <read_six_numbers>:
 8049179:	55                   	push   %ebp
 804917a:	89 e5                	mov    %esp,%ebp
 804917c:	83 ec 08             	sub    $0x8,%esp
 804917f:	8b 45 0c             	mov    0xc(%ebp),%eax
 8049182:	8d 50 14             	lea    0x14(%eax),%edx
 8049185:	52                   	push   %edx
 8049186:	8d 50 10             	lea    0x10(%eax),%edx
 8049189:	52                   	push   %edx
 804918a:	8d 50 0c             	lea    0xc(%eax),%edx
 804918d:	52                   	push   %edx
 804918e:	8d 50 08             	lea    0x8(%eax),%edx
 8049191:	52                   	push   %edx
 8049192:	8d 50 04             	lea    0x4(%eax),%edx
 8049195:	52                   	push   %edx
 8049196:	50                   	push   %eax
 8049197:	68 83 a2 04 08       	push   $0x804a283
 804919c:	ff 75 08             	pushl  0x8(%ebp)
 804919f:	e8 6c f6 ff ff       	call   8048810 <__isoc99_sscanf@plt>
 80491a4:	83 c4 20             	add    $0x20,%esp
 80491a7:	83 f8 05             	cmp    $0x5,%eax
 80491aa:	7f 05                	jg     80491b1 <read_six_numbers+0x38>
 80491ac:	e8 a0 ff ff ff       	call   8049151 <explode_bomb>
 80491b1:	c9                   	leave  
 80491b2:	c3                   	ret    

080491b3 <read_line>:
 80491b3:	55                   	push   %ebp
 80491b4:	89 e5                	mov    %esp,%ebp
 80491b6:	57                   	push   %edi
 80491b7:	56                   	push   %esi
 80491b8:	53                   	push   %ebx
 80491b9:	83 ec 0c             	sub    $0xc,%esp
 80491bc:	e8 48 ff ff ff       	call   8049109 <skip>
 80491c1:	85 c0                	test   %eax,%eax
 80491c3:	75 70                	jne    8049235 <read_line+0x82>
 80491c5:	a1 c0 c3 04 08       	mov    0x804c3c0,%eax
 80491ca:	39 05 d0 c3 04 08    	cmp    %eax,0x804c3d0
 80491d0:	75 19                	jne    80491eb <read_line+0x38>
 80491d2:	83 ec 0c             	sub    $0xc,%esp
 80491d5:	68 95 a2 04 08       	push   $0x804a295
 80491da:	e8 e1 f5 ff ff       	call   80487c0 <puts@plt>
 80491df:	c7 04 24 08 00 00 00 	movl   $0x8,(%esp)
 80491e6:	e8 f5 f5 ff ff       	call   80487e0 <exit@plt>
 80491eb:	83 ec 0c             	sub    $0xc,%esp
 80491ee:	68 b3 a2 04 08       	push   $0x804a2b3
 80491f3:	e8 b8 f5 ff ff       	call   80487b0 <getenv@plt>
 80491f8:	83 c4 10             	add    $0x10,%esp
 80491fb:	85 c0                	test   %eax,%eax
 80491fd:	74 0a                	je     8049209 <read_line+0x56>
 80491ff:	83 ec 0c             	sub    $0xc,%esp
 8049202:	6a 00                	push   $0x0
 8049204:	e8 d7 f5 ff ff       	call   80487e0 <exit@plt>
 8049209:	a1 c0 c3 04 08       	mov    0x804c3c0,%eax
 804920e:	a3 d0 c3 04 08       	mov    %eax,0x804c3d0
 8049213:	e8 f1 fe ff ff       	call   8049109 <skip>
 8049218:	85 c0                	test   %eax,%eax
 804921a:	75 19                	jne    8049235 <read_line+0x82>
 804921c:	83 ec 0c             	sub    $0xc,%esp
 804921f:	68 95 a2 04 08       	push   $0x804a295
 8049224:	e8 97 f5 ff ff       	call   80487c0 <puts@plt>
 8049229:	c7 04 24 00 00 00 00 	movl   $0x0,(%esp)
 8049230:	e8 ab f5 ff ff       	call   80487e0 <exit@plt>
 8049235:	8b 15 cc c3 04 08    	mov    0x804c3cc,%edx
 804923b:	8d 1c 92             	lea    (%edx,%edx,4),%ebx
 804923e:	c1 e3 04             	shl    $0x4,%ebx
 8049241:	81 c3 e0 c3 04 08    	add    $0x804c3e0,%ebx
 8049247:	b8 00 00 00 00       	mov    $0x0,%eax
 804924c:	b9 ff ff ff ff       	mov    $0xffffffff,%ecx
 8049251:	89 df                	mov    %ebx,%edi
 8049253:	f2 ae                	repnz scas %es:(%edi),%al
 8049255:	f7 d1                	not    %ecx
 8049257:	83 e9 01             	sub    $0x1,%ecx
 804925a:	83 f9 4e             	cmp    $0x4e,%ecx
 804925d:	7e 36                	jle    8049295 <read_line+0xe2>
 804925f:	83 ec 0c             	sub    $0xc,%esp
 8049262:	68 be a2 04 08       	push   $0x804a2be
 8049267:	e8 54 f5 ff ff       	call   80487c0 <puts@plt>
 804926c:	a1 cc c3 04 08       	mov    0x804c3cc,%eax
 8049271:	8d 50 01             	lea    0x1(%eax),%edx
 8049274:	89 15 cc c3 04 08    	mov    %edx,0x804c3cc
 804927a:	6b c0 50             	imul   $0x50,%eax,%eax
 804927d:	05 e0 c3 04 08       	add    $0x804c3e0,%eax
 8049282:	be d9 a2 04 08       	mov    $0x804a2d9,%esi
 8049287:	b9 04 00 00 00       	mov    $0x4,%ecx
 804928c:	89 c7                	mov    %eax,%edi
 804928e:	f3 a5                	rep movsl %ds:(%esi),%es:(%edi)
 8049290:	e8 bc fe ff ff       	call   8049151 <explode_bomb>
 8049295:	8d 04 92             	lea    (%edx,%edx,4),%eax
 8049298:	c1 e0 04             	shl    $0x4,%eax
 804929b:	c6 84 01 df c3 04 08 	movb   $0x0,0x804c3df(%ecx,%eax,1)
 80492a2:	00 
 80492a3:	83 c2 01             	add    $0x1,%edx
 80492a6:	89 15 cc c3 04 08    	mov    %edx,0x804c3cc
 80492ac:	89 d8                	mov    %ebx,%eax
 80492ae:	8d 65 f4             	lea    -0xc(%ebp),%esp
 80492b1:	5b                   	pop    %ebx
 80492b2:	5e                   	pop    %esi
 80492b3:	5f                   	pop    %edi
 80492b4:	5d                   	pop    %ebp
 80492b5:	c3                   	ret    

080492b6 <phase_defused>:
 80492b6:	55                   	push   %ebp
 80492b7:	89 e5                	mov    %esp,%ebp
 80492b9:	83 ec 68             	sub    $0x68,%esp
 80492bc:	65 a1 14 00 00 00    	mov    %gs:0x14,%eax
 80492c2:	89 45 f4             	mov    %eax,-0xc(%ebp)
 80492c5:	31 c0                	xor    %eax,%eax
 80492c7:	83 3d cc c3 04 08 06 	cmpl   $0x6,0x804c3cc
 80492ce:	75 6f                	jne    804933f <phase_defused+0x89>
 80492d0:	83 ec 0c             	sub    $0xc,%esp
 80492d3:	8d 45 a4             	lea    -0x5c(%ebp),%eax
 80492d6:	50                   	push   %eax
 80492d7:	8d 45 a0             	lea    -0x60(%ebp),%eax
 80492da:	50                   	push   %eax
 80492db:	8d 45 9c             	lea    -0x64(%ebp),%eax
 80492de:	50                   	push   %eax
 80492df:	68 e9 a2 04 08       	push   $0x804a2e9
 80492e4:	68 d0 c4 04 08       	push   $0x804c4d0
 80492e9:	e8 22 f5 ff ff       	call   8048810 <__isoc99_sscanf@plt>
 80492ee:	83 c4 20             	add    $0x20,%esp
 80492f1:	83 f8 03             	cmp    $0x3,%eax
 80492f4:	75 39                	jne    804932f <phase_defused+0x79>
 80492f6:	83 ec 08             	sub    $0x8,%esp
 80492f9:	68 f2 a2 04 08       	push   $0x804a2f2
 80492fe:	8d 45 a4             	lea    -0x5c(%ebp),%eax
 8049301:	50                   	push   %eax
 8049302:	e8 47 fd ff ff       	call   804904e <strings_not_equal>
 8049307:	83 c4 10             	add    $0x10,%esp
 804930a:	85 c0                	test   %eax,%eax
 804930c:	75 21                	jne    804932f <phase_defused+0x79>
 804930e:	83 ec 0c             	sub    $0xc,%esp
 8049311:	68 b8 a1 04 08       	push   $0x804a1b8
 8049316:	e8 a5 f4 ff ff       	call   80487c0 <puts@plt>
 804931b:	c7 04 24 e0 a1 04 08 	movl   $0x804a1e0,(%esp)
 8049322:	e8 99 f4 ff ff       	call   80487c0 <puts@plt>
 8049327:	e8 20 fc ff ff       	call   8048f4c <secret_phase>
 804932c:	83 c4 10             	add    $0x10,%esp
 804932f:	83 ec 0c             	sub    $0xc,%esp
 8049332:	68 18 a2 04 08       	push   $0x804a218
 8049337:	e8 84 f4 ff ff       	call   80487c0 <puts@plt>
 804933c:	83 c4 10             	add    $0x10,%esp
 804933f:	8b 45 f4             	mov    -0xc(%ebp),%eax
 8049342:	65 33 05 14 00 00 00 	xor    %gs:0x14,%eax
 8049349:	74 05                	je     8049350 <phase_defused+0x9a>
 804934b:	e8 40 f4 ff ff       	call   8048790 <__stack_chk_fail@plt>
 8049350:	c9                   	leave  
 8049351:	c3                   	ret    

08049352 <sigalrm_handler>:
 8049352:	55                   	push   %ebp
 8049353:	89 e5                	mov    %esp,%ebp
 8049355:	83 ec 08             	sub    $0x8,%esp
 8049358:	6a 00                	push   $0x0
 804935a:	68 4c a3 04 08       	push   $0x804a34c
 804935f:	6a 01                	push   $0x1
 8049361:	ff 35 a0 c3 04 08    	pushl  0x804c3a0
 8049367:	e8 f4 f4 ff ff       	call   8048860 <__fprintf_chk@plt>
 804936c:	c7 04 24 01 00 00 00 	movl   $0x1,(%esp)
 8049373:	e8 68 f4 ff ff       	call   80487e0 <exit@plt>

08049378 <rio_readlineb>:
 8049378:	55                   	push   %ebp
 8049379:	89 e5                	mov    %esp,%ebp
 804937b:	57                   	push   %edi
 804937c:	56                   	push   %esi
 804937d:	53                   	push   %ebx
 804937e:	83 ec 2c             	sub    $0x2c,%esp
 8049381:	89 c3                	mov    %eax,%ebx
 8049383:	89 d7                	mov    %edx,%edi
 8049385:	89 c8                	mov    %ecx,%eax
 8049387:	89 4d cc             	mov    %ecx,-0x34(%ebp)
 804938a:	65 8b 0d 14 00 00 00 	mov    %gs:0x14,%ecx
 8049391:	89 4d e4             	mov    %ecx,-0x1c(%ebp)
 8049394:	31 c9                	xor    %ecx,%ecx
 8049396:	83 f8 01             	cmp    $0x1,%eax
 8049399:	76 7b                	jbe    8049416 <rio_readlineb+0x9e>
 804939b:	89 45 d0             	mov    %eax,-0x30(%ebp)
 804939e:	c7 45 d4 01 00 00 00 	movl   $0x1,-0x2c(%ebp)
 80493a5:	8d 73 0c             	lea    0xc(%ebx),%esi
 80493a8:	eb 2d                	jmp    80493d7 <rio_readlineb+0x5f>
 80493aa:	83 ec 04             	sub    $0x4,%esp
 80493ad:	68 00 20 00 00       	push   $0x2000
 80493b2:	56                   	push   %esi
 80493b3:	ff 33                	pushl  (%ebx)
 80493b5:	e8 76 f3 ff ff       	call   8048730 <read@plt>
 80493ba:	89 43 04             	mov    %eax,0x4(%ebx)
 80493bd:	83 c4 10             	add    $0x10,%esp
 80493c0:	85 c0                	test   %eax,%eax
 80493c2:	79 0c                	jns    80493d0 <rio_readlineb+0x58>
 80493c4:	e8 67 f4 ff ff       	call   8048830 <__errno_location@plt>
 80493c9:	83 38 04             	cmpl   $0x4,(%eax)
 80493cc:	74 09                	je     80493d7 <rio_readlineb+0x5f>
 80493ce:	eb 69                	jmp    8049439 <rio_readlineb+0xc1>
 80493d0:	85 c0                	test   %eax,%eax
 80493d2:	74 6a                	je     804943e <rio_readlineb+0xc6>
 80493d4:	89 73 08             	mov    %esi,0x8(%ebx)
 80493d7:	8b 43 04             	mov    0x4(%ebx),%eax
 80493da:	85 c0                	test   %eax,%eax
 80493dc:	7e cc                	jle    80493aa <rio_readlineb+0x32>
 80493de:	8b 4b 08             	mov    0x8(%ebx),%ecx
 80493e1:	0f b6 11             	movzbl (%ecx),%edx
 80493e4:	88 55 e3             	mov    %dl,-0x1d(%ebp)
 80493e7:	83 c1 01             	add    $0x1,%ecx
 80493ea:	89 4b 08             	mov    %ecx,0x8(%ebx)
 80493ed:	83 e8 01             	sub    $0x1,%eax
 80493f0:	89 43 04             	mov    %eax,0x4(%ebx)
 80493f3:	83 c7 01             	add    $0x1,%edi
 80493f6:	88 57 ff             	mov    %dl,-0x1(%edi)
 80493f9:	80 fa 0a             	cmp    $0xa,%dl
 80493fc:	75 0a                	jne    8049408 <rio_readlineb+0x90>
 80493fe:	eb 25                	jmp    8049425 <rio_readlineb+0xad>
 8049400:	83 7d d4 01          	cmpl   $0x1,-0x2c(%ebp)
 8049404:	75 1f                	jne    8049425 <rio_readlineb+0xad>
 8049406:	eb 23                	jmp    804942b <rio_readlineb+0xb3>
 8049408:	83 45 d4 01          	addl   $0x1,-0x2c(%ebp)
 804940c:	8b 45 d4             	mov    -0x2c(%ebp),%eax
 804940f:	3b 45 d0             	cmp    -0x30(%ebp),%eax
 8049412:	74 0b                	je     804941f <rio_readlineb+0xa7>
 8049414:	eb c1                	jmp    80493d7 <rio_readlineb+0x5f>
 8049416:	c7 45 d4 01 00 00 00 	movl   $0x1,-0x2c(%ebp)
 804941d:	eb 06                	jmp    8049425 <rio_readlineb+0xad>
 804941f:	8b 45 cc             	mov    -0x34(%ebp),%eax
 8049422:	89 45 d4             	mov    %eax,-0x2c(%ebp)
 8049425:	c6 07 00             	movb   $0x0,(%edi)
 8049428:	8b 45 d4             	mov    -0x2c(%ebp),%eax
 804942b:	8b 4d e4             	mov    -0x1c(%ebp),%ecx
 804942e:	65 33 0d 14 00 00 00 	xor    %gs:0x14,%ecx
 8049435:	74 17                	je     804944e <rio_readlineb+0xd6>
 8049437:	eb 10                	jmp    8049449 <rio_readlineb+0xd1>
 8049439:	b8 ff ff ff ff       	mov    $0xffffffff,%eax
 804943e:	85 c0                	test   %eax,%eax
 8049440:	74 be                	je     8049400 <rio_readlineb+0x88>
 8049442:	b8 ff ff ff ff       	mov    $0xffffffff,%eax
 8049447:	eb e2                	jmp    804942b <rio_readlineb+0xb3>
 8049449:	e8 42 f3 ff ff       	call   8048790 <__stack_chk_fail@plt>
 804944e:	8d 65 f4             	lea    -0xc(%ebp),%esp
 8049451:	5b                   	pop    %ebx
 8049452:	5e                   	pop    %esi
 8049453:	5f                   	pop    %edi
 8049454:	5d                   	pop    %ebp
 8049455:	c3                   	ret    

08049456 <submitr>:
 8049456:	55                   	push   %ebp
 8049457:	89 e5                	mov    %esp,%ebp
 8049459:	57                   	push   %edi
 804945a:	56                   	push   %esi
 804945b:	53                   	push   %ebx
 804945c:	81 ec 60 a0 00 00    	sub    $0xa060,%esp
 8049462:	8b 75 08             	mov    0x8(%ebp),%esi
 8049465:	8b 45 10             	mov    0x10(%ebp),%eax
 8049468:	89 85 b0 5f ff ff    	mov    %eax,-0xa050(%ebp)
 804946e:	8b 45 14             	mov    0x14(%ebp),%eax
 8049471:	89 85 ac 5f ff ff    	mov    %eax,-0xa054(%ebp)
 8049477:	8b 45 18             	mov    0x18(%ebp),%eax
 804947a:	89 85 a8 5f ff ff    	mov    %eax,-0xa058(%ebp)
 8049480:	8b 5d 1c             	mov    0x1c(%ebp),%ebx
 8049483:	8b 45 20             	mov    0x20(%ebp),%eax
 8049486:	89 85 a4 5f ff ff    	mov    %eax,-0xa05c(%ebp)
 804948c:	65 a1 14 00 00 00    	mov    %gs:0x14,%eax
 8049492:	89 45 e4             	mov    %eax,-0x1c(%ebp)
 8049495:	31 c0                	xor    %eax,%eax
 8049497:	c7 85 c4 5f ff ff 00 	movl   $0x0,-0xa03c(%ebp)
 804949e:	00 00 00 
 80494a1:	6a 00                	push   $0x0
 80494a3:	6a 01                	push   $0x1
 80494a5:	6a 02                	push   $0x2
 80494a7:	e8 a4 f3 ff ff       	call   8048850 <socket@plt>
 80494ac:	89 85 b4 5f ff ff    	mov    %eax,-0xa04c(%ebp)
 80494b2:	83 c4 10             	add    $0x10,%esp
 80494b5:	85 c0                	test   %eax,%eax
 80494b7:	79 54                	jns    804950d <submitr+0xb7>
 80494b9:	8b 85 a4 5f ff ff    	mov    -0xa05c(%ebp),%eax
 80494bf:	c7 00 45 72 72 6f    	movl   $0x6f727245,(%eax)
 80494c5:	c7 40 04 72 3a 20 43 	movl   $0x43203a72,0x4(%eax)
 80494cc:	c7 40 08 6c 69 65 6e 	movl   $0x6e65696c,0x8(%eax)
 80494d3:	c7 40 0c 74 20 75 6e 	movl   $0x6e752074,0xc(%eax)
 80494da:	c7 40 10 61 62 6c 65 	movl   $0x656c6261,0x10(%eax)
 80494e1:	c7 40 14 20 74 6f 20 	movl   $0x206f7420,0x14(%eax)
 80494e8:	c7 40 18 63 72 65 61 	movl   $0x61657263,0x18(%eax)
 80494ef:	c7 40 1c 74 65 20 73 	movl   $0x73206574,0x1c(%eax)
 80494f6:	c7 40 20 6f 63 6b 65 	movl   $0x656b636f,0x20(%eax)
 80494fd:	66 c7 40 24 74 00    	movw   $0x74,0x24(%eax)
 8049503:	b8 ff ff ff ff       	mov    $0xffffffff,%eax
 8049508:	e9 a0 06 00 00       	jmp    8049bad <submitr+0x757>
 804950d:	83 ec 0c             	sub    $0xc,%esp
 8049510:	56                   	push   %esi
 8049511:	e8 5a f3 ff ff       	call   8048870 <gethostbyname@plt>
 8049516:	83 c4 10             	add    $0x10,%esp
 8049519:	85 c0                	test   %eax,%eax
 804951b:	75 77                	jne    8049594 <submitr+0x13e>
 804951d:	8b 85 a4 5f ff ff    	mov    -0xa05c(%ebp),%eax
 8049523:	c7 00 45 72 72 6f    	movl   $0x6f727245,(%eax)
 8049529:	c7 40 04 72 3a 20 44 	movl   $0x44203a72,0x4(%eax)
 8049530:	c7 40 08 4e 53 20 69 	movl   $0x6920534e,0x8(%eax)
 8049537:	c7 40 0c 73 20 75 6e 	movl   $0x6e752073,0xc(%eax)
 804953e:	c7 40 10 61 62 6c 65 	movl   $0x656c6261,0x10(%eax)
 8049545:	c7 40 14 20 74 6f 20 	movl   $0x206f7420,0x14(%eax)
 804954c:	c7 40 18 72 65 73 6f 	movl   $0x6f736572,0x18(%eax)
 8049553:	c7 40 1c 6c 76 65 20 	movl   $0x2065766c,0x1c(%eax)
 804955a:	c7 40 20 73 65 72 76 	movl   $0x76726573,0x20(%eax)
 8049561:	c7 40 24 65 72 20 61 	movl   $0x61207265,0x24(%eax)
 8049568:	c7 40 28 64 64 72 65 	movl   $0x65726464,0x28(%eax)
 804956f:	66 c7 40 2c 73 73    	movw   $0x7373,0x2c(%eax)
 8049575:	c6 40 2e 00          	movb   $0x0,0x2e(%eax)
 8049579:	83 ec 0c             	sub    $0xc,%esp
 804957c:	ff b5 b4 5f ff ff    	pushl  -0xa04c(%ebp)
 8049582:	e8 19 f3 ff ff       	call   80488a0 <close@plt>
 8049587:	83 c4 10             	add    $0x10,%esp
 804958a:	b8 ff ff ff ff       	mov    $0xffffffff,%eax
 804958f:	e9 19 06 00 00       	jmp    8049bad <submitr+0x757>
 8049594:	8d b5 c8 5f ff ff    	lea    -0xa038(%ebp),%esi
 804959a:	c7 85 c8 5f ff ff 00 	movl   $0x0,-0xa038(%ebp)
 80495a1:	00 00 00 
 80495a4:	c7 85 cc 5f ff ff 00 	movl   $0x0,-0xa034(%ebp)
 80495ab:	00 00 00 
 80495ae:	c7 85 d0 5f ff ff 00 	movl   $0x0,-0xa030(%ebp)
 80495b5:	00 00 00 
 80495b8:	c7 85 d4 5f ff ff 00 	movl   $0x0,-0xa02c(%ebp)
 80495bf:	00 00 00 
 80495c2:	66 c7 85 c8 5f ff ff 	movw   $0x2,-0xa038(%ebp)
 80495c9:	02 00 
 80495cb:	6a 0c                	push   $0xc
 80495cd:	ff 70 0c             	pushl  0xc(%eax)
 80495d0:	8b 40 10             	mov    0x10(%eax),%eax
 80495d3:	ff 30                	pushl  (%eax)
 80495d5:	8d 85 cc 5f ff ff    	lea    -0xa034(%ebp),%eax
 80495db:	50                   	push   %eax
 80495dc:	e8 ef f1 ff ff       	call   80487d0 <__memmove_chk@plt>
 80495e1:	0f b7 45 0c          	movzwl 0xc(%ebp),%eax
 80495e5:	66 c1 c8 08          	ror    $0x8,%ax
 80495e9:	66 89 85 ca 5f ff ff 	mov    %ax,-0xa036(%ebp)
 80495f0:	83 c4 0c             	add    $0xc,%esp
 80495f3:	6a 10                	push   $0x10
 80495f5:	56                   	push   %esi
 80495f6:	ff b5 b4 5f ff ff    	pushl  -0xa04c(%ebp)
 80495fc:	e8 8f f2 ff ff       	call   8048890 <connect@plt>
 8049601:	83 c4 10             	add    $0x10,%esp
 8049604:	85 c0                	test   %eax,%eax
 8049606:	79 69                	jns    8049671 <submitr+0x21b>
 8049608:	8b 85 a4 5f ff ff    	mov    -0xa05c(%ebp),%eax
 804960e:	c7 00 45 72 72 6f    	movl   $0x6f727245,(%eax)
 8049614:	c7 40 04 72 3a 20 55 	movl   $0x55203a72,0x4(%eax)
 804961b:	c7 40 08 6e 61 62 6c 	movl   $0x6c62616e,0x8(%eax)
 8049622:	c7 40 0c 65 20 74 6f 	movl   $0x6f742065,0xc(%eax)
 8049629:	c7 40 10 20 63 6f 6e 	movl   $0x6e6f6320,0x10(%eax)
 8049630:	c7 40 14 6e 65 63 74 	movl   $0x7463656e,0x14(%eax)
 8049637:	c7 40 18 20 74 6f 20 	movl   $0x206f7420,0x18(%eax)
 804963e:	c7 40 1c 74 68 65 20 	movl   $0x20656874,0x1c(%eax)
 8049645:	c7 40 20 73 65 72 76 	movl   $0x76726573,0x20(%eax)
 804964c:	66 c7 40 24 65 72    	movw   $0x7265,0x24(%eax)
 8049652:	c6 40 26 00          	movb   $0x0,0x26(%eax)
 8049656:	83 ec 0c             	sub    $0xc,%esp
 8049659:	ff b5 b4 5f ff ff    	pushl  -0xa04c(%ebp)
 804965f:	e8 3c f2 ff ff       	call   80488a0 <close@plt>
 8049664:	83 c4 10             	add    $0x10,%esp
 8049667:	b8 ff ff ff ff       	mov    $0xffffffff,%eax
 804966c:	e9 3c 05 00 00       	jmp    8049bad <submitr+0x757>
 8049671:	ba ff ff ff ff       	mov    $0xffffffff,%edx
 8049676:	b8 00 00 00 00       	mov    $0x0,%eax
 804967b:	89 d1                	mov    %edx,%ecx
 804967d:	89 df                	mov    %ebx,%edi
 804967f:	f2 ae                	repnz scas %es:(%edi),%al
 8049681:	89 ce                	mov    %ecx,%esi
 8049683:	f7 d6                	not    %esi
 8049685:	89 d1                	mov    %edx,%ecx
 8049687:	8b bd b0 5f ff ff    	mov    -0xa050(%ebp),%edi
 804968d:	f2 ae                	repnz scas %es:(%edi),%al
 804968f:	89 8d a0 5f ff ff    	mov    %ecx,-0xa060(%ebp)
 8049695:	89 d1                	mov    %edx,%ecx
 8049697:	8b bd ac 5f ff ff    	mov    -0xa054(%ebp),%edi
 804969d:	f2 ae                	repnz scas %es:(%edi),%al
 804969f:	89 cf                	mov    %ecx,%edi
 80496a1:	f7 d7                	not    %edi
 80496a3:	89 bd 9c 5f ff ff    	mov    %edi,-0xa064(%ebp)
 80496a9:	89 d1                	mov    %edx,%ecx
 80496ab:	8b bd a8 5f ff ff    	mov    -0xa058(%ebp),%edi
 80496b1:	f2 ae                	repnz scas %es:(%edi),%al
 80496b3:	8b 95 9c 5f ff ff    	mov    -0xa064(%ebp),%edx
 80496b9:	2b 95 a0 5f ff ff    	sub    -0xa060(%ebp),%edx
 80496bf:	29 ca                	sub    %ecx,%edx
 80496c1:	8d 44 76 fd          	lea    -0x3(%esi,%esi,2),%eax
 80496c5:	8d 44 02 7b          	lea    0x7b(%edx,%eax,1),%eax
 80496c9:	3d 00 20 00 00       	cmp    $0x2000,%eax
 80496ce:	0f 86 82 00 00 00    	jbe    8049756 <submitr+0x300>
 80496d4:	8b 85 a4 5f ff ff    	mov    -0xa05c(%ebp),%eax
 80496da:	c7 00 45 72 72 6f    	movl   $0x6f727245,(%eax)
 80496e0:	c7 40 04 72 3a 20 52 	movl   $0x52203a72,0x4(%eax)
 80496e7:	c7 40 08 65 73 75 6c 	movl   $0x6c757365,0x8(%eax)
 80496ee:	c7 40 0c 74 20 73 74 	movl   $0x74732074,0xc(%eax)
 80496f5:	c7 40 10 72 69 6e 67 	movl   $0x676e6972,0x10(%eax)
 80496fc:	c7 40 14 20 74 6f 6f 	movl   $0x6f6f7420,0x14(%eax)
 8049703:	c7 40 18 20 6c 61 72 	movl   $0x72616c20,0x18(%eax)
 804970a:	c7 40 1c 67 65 2e 20 	movl   $0x202e6567,0x1c(%eax)
 8049711:	c7 40 20 49 6e 63 72 	movl   $0x72636e49,0x20(%eax)
 8049718:	c7 40 24 65 61 73 65 	movl   $0x65736165,0x24(%eax)
 804971f:	c7 40 28 20 53 55 42 	movl   $0x42555320,0x28(%eax)
 8049726:	c7 40 2c 4d 49 54 52 	movl   $0x5254494d,0x2c(%eax)
 804972d:	c7 40 30 5f 4d 41 58 	movl   $0x58414d5f,0x30(%eax)
 8049734:	c7 40 34 42 55 46 00 	movl   $0x465542,0x34(%eax)
 804973b:	83 ec 0c             	sub    $0xc,%esp
 804973e:	ff b5 b4 5f ff ff    	pushl  -0xa04c(%ebp)
 8049744:	e8 57 f1 ff ff       	call   80488a0 <close@plt>
 8049749:	83 c4 10             	add    $0x10,%esp
 804974c:	b8 ff ff ff ff       	mov    $0xffffffff,%eax
 8049751:	e9 57 04 00 00       	jmp    8049bad <submitr+0x757>
 8049756:	8d 95 e4 9f ff ff    	lea    -0x601c(%ebp),%edx
 804975c:	b9 00 08 00 00       	mov    $0x800,%ecx
 8049761:	b8 00 00 00 00       	mov    $0x0,%eax
 8049766:	89 d7                	mov    %edx,%edi
 8049768:	f3 ab                	rep stos %eax,%es:(%edi)
 804976a:	b9 ff ff ff ff       	mov    $0xffffffff,%ecx
 804976f:	89 df                	mov    %ebx,%edi
 8049771:	f2 ae                	repnz scas %es:(%edi),%al
 8049773:	f7 d1                	not    %ecx
 8049775:	89 ce                	mov    %ecx,%esi
 8049777:	83 ee 01             	sub    $0x1,%esi
 804977a:	0f 84 8a 04 00 00    	je     8049c0a <submitr+0x7b4>
 8049780:	89 d7                	mov    %edx,%edi
 8049782:	0f b6 13             	movzbl (%ebx),%edx
 8049785:	8d 4a d6             	lea    -0x2a(%edx),%ecx
 8049788:	b8 01 00 00 00       	mov    $0x1,%eax
 804978d:	80 f9 0f             	cmp    $0xf,%cl
 8049790:	77 0d                	ja     804979f <submitr+0x349>
 8049792:	b8 d9 ff 00 00       	mov    $0xffd9,%eax
 8049797:	d3 e8                	shr    %cl,%eax
 8049799:	83 f0 01             	xor    $0x1,%eax
 804979c:	83 e0 01             	and    $0x1,%eax
 804979f:	80 fa 5f             	cmp    $0x5f,%dl
 80497a2:	0f 94 c1             	sete   %cl
 80497a5:	38 c1                	cmp    %al,%cl
 80497a7:	73 0c                	jae    80497b5 <submitr+0x35f>
 80497a9:	89 d0                	mov    %edx,%eax
 80497ab:	83 e0 df             	and    $0xffffffdf,%eax
 80497ae:	83 e8 41             	sub    $0x41,%eax
 80497b1:	3c 19                	cmp    $0x19,%al
 80497b3:	77 07                	ja     80497bc <submitr+0x366>
 80497b5:	88 17                	mov    %dl,(%edi)
 80497b7:	8d 7f 01             	lea    0x1(%edi),%edi
 80497ba:	eb 5c                	jmp    8049818 <submitr+0x3c2>
 80497bc:	80 fa 20             	cmp    $0x20,%dl
 80497bf:	75 08                	jne    80497c9 <submitr+0x373>
 80497c1:	c6 07 2b             	movb   $0x2b,(%edi)
 80497c4:	8d 7f 01             	lea    0x1(%edi),%edi
 80497c7:	eb 4f                	jmp    8049818 <submitr+0x3c2>
 80497c9:	8d 42 e0             	lea    -0x20(%edx),%eax
 80497cc:	3c 5f                	cmp    $0x5f,%al
 80497ce:	76 09                	jbe    80497d9 <submitr+0x383>
 80497d0:	80 fa 09             	cmp    $0x9,%dl
 80497d3:	0f 85 e9 03 00 00    	jne    8049bc2 <submitr+0x76c>
 80497d9:	83 ec 0c             	sub    $0xc,%esp
 80497dc:	0f b6 d2             	movzbl %dl,%edx
 80497df:	52                   	push   %edx
 80497e0:	68 58 a4 04 08       	push   $0x804a458
 80497e5:	6a 08                	push   $0x8
 80497e7:	6a 01                	push   $0x1
 80497e9:	8d 85 e4 df ff ff    	lea    -0x201c(%ebp),%eax
 80497ef:	50                   	push   %eax
 80497f0:	e8 cb f0 ff ff       	call   80488c0 <__sprintf_chk@plt>
 80497f5:	0f b6 85 e4 df ff ff 	movzbl -0x201c(%ebp),%eax
 80497fc:	88 07                	mov    %al,(%edi)
 80497fe:	0f b6 85 e5 df ff ff 	movzbl -0x201b(%ebp),%eax
 8049805:	88 47 01             	mov    %al,0x1(%edi)
 8049808:	0f b6 85 e6 df ff ff 	movzbl -0x201a(%ebp),%eax
 804980f:	88 47 02             	mov    %al,0x2(%edi)
 8049812:	83 c4 20             	add    $0x20,%esp
 8049815:	8d 7f 03             	lea    0x3(%edi),%edi
 8049818:	83 c3 01             	add    $0x1,%ebx
 804981b:	83 ee 01             	sub    $0x1,%esi
 804981e:	0f 85 5e ff ff ff    	jne    8049782 <submitr+0x32c>
 8049824:	e9 e1 03 00 00       	jmp    8049c0a <submitr+0x7b4>
 8049829:	89 bd b0 5f ff ff    	mov    %edi,-0xa050(%ebp)
 804982f:	8b bd b4 5f ff ff    	mov    -0xa04c(%ebp),%edi
 8049835:	83 ec 04             	sub    $0x4,%esp
 8049838:	53                   	push   %ebx
 8049839:	56                   	push   %esi
 804983a:	57                   	push   %edi
 804983b:	e8 c0 ef ff ff       	call   8048800 <write@plt>
 8049840:	83 c4 10             	add    $0x10,%esp
 8049843:	85 c0                	test   %eax,%eax
 8049845:	7f 0f                	jg     8049856 <submitr+0x400>
 8049847:	e8 e4 ef ff ff       	call   8048830 <__errno_location@plt>
 804984c:	83 38 04             	cmpl   $0x4,(%eax)
 804984f:	75 15                	jne    8049866 <submitr+0x410>
 8049851:	b8 00 00 00 00       	mov    $0x0,%eax
 8049856:	01 c6                	add    %eax,%esi
 8049858:	29 c3                	sub    %eax,%ebx
 804985a:	75 d9                	jne    8049835 <submitr+0x3df>
 804985c:	8b bd b0 5f ff ff    	mov    -0xa050(%ebp),%edi
 8049862:	85 ff                	test   %edi,%edi
 8049864:	79 6d                	jns    80498d3 <submitr+0x47d>
 8049866:	8b 85 a4 5f ff ff    	mov    -0xa05c(%ebp),%eax
 804986c:	c7 00 45 72 72 6f    	movl   $0x6f727245,(%eax)
 8049872:	c7 40 04 72 3a 20 43 	movl   $0x43203a72,0x4(%eax)
 8049879:	c7 40 08 6c 69 65 6e 	movl   $0x6e65696c,0x8(%eax)
 8049880:	c7 40 0c 74 20 75 6e 	movl   $0x6e752074,0xc(%eax)
 8049887:	c7 40 10 61 62 6c 65 	movl   $0x656c6261,0x10(%eax)
 804988e:	c7 40 14 20 74 6f 20 	movl   $0x206f7420,0x14(%eax)
 8049895:	c7 40 18 77 72 69 74 	movl   $0x74697277,0x18(%eax)
 804989c:	c7 40 1c 65 20 74 6f 	movl   $0x6f742065,0x1c(%eax)
 80498a3:	c7 40 20 20 74 68 65 	movl   $0x65687420,0x20(%eax)
 80498aa:	c7 40 24 20 73 65 72 	movl   $0x72657320,0x24(%eax)
 80498b1:	c7 40 28 76 65 72 00 	movl   $0x726576,0x28(%eax)
 80498b8:	83 ec 0c             	sub    $0xc,%esp
 80498bb:	ff b5 b4 5f ff ff    	pushl  -0xa04c(%ebp)
 80498c1:	e8 da ef ff ff       	call   80488a0 <close@plt>
 80498c6:	83 c4 10             	add    $0x10,%esp
 80498c9:	b8 ff ff ff ff       	mov    $0xffffffff,%eax
 80498ce:	e9 da 02 00 00       	jmp    8049bad <submitr+0x757>
 80498d3:	8b 85 b4 5f ff ff    	mov    -0xa04c(%ebp),%eax
 80498d9:	89 85 d8 5f ff ff    	mov    %eax,-0xa028(%ebp)
 80498df:	c7 85 dc 5f ff ff 00 	movl   $0x0,-0xa024(%ebp)
 80498e6:	00 00 00 
 80498e9:	8d 85 e4 5f ff ff    	lea    -0xa01c(%ebp),%eax
 80498ef:	89 85 e0 5f ff ff    	mov    %eax,-0xa020(%ebp)
 80498f5:	b9 00 20 00 00       	mov    $0x2000,%ecx
 80498fa:	8d 95 e4 7f ff ff    	lea    -0x801c(%ebp),%edx
 8049900:	8d 85 d8 5f ff ff    	lea    -0xa028(%ebp),%eax
 8049906:	e8 6d fa ff ff       	call   8049378 <rio_readlineb>
 804990b:	85 c0                	test   %eax,%eax
 804990d:	0f 8f 81 00 00 00    	jg     8049994 <submitr+0x53e>
 8049913:	8b 85 a4 5f ff ff    	mov    -0xa05c(%ebp),%eax
 8049919:	c7 00 45 72 72 6f    	movl   $0x6f727245,(%eax)
 804991f:	c7 40 04 72 3a 20 43 	movl   $0x43203a72,0x4(%eax)
 8049926:	c7 40 08 6c 69 65 6e 	movl   $0x6e65696c,0x8(%eax)
 804992d:	c7 40 0c 74 20 75 6e 	movl   $0x6e752074,0xc(%eax)
 8049934:	c7 40 10 61 62 6c 65 	movl   $0x656c6261,0x10(%eax)
 804993b:	c7 40 14 20 74 6f 20 	movl   $0x206f7420,0x14(%eax)
 8049942:	c7 40 18 72 65 61 64 	movl   $0x64616572,0x18(%eax)
 8049949:	c7 40 1c 20 66 69 72 	movl   $0x72696620,0x1c(%eax)
 8049950:	c7 40 20 73 74 20 68 	movl   $0x68207473,0x20(%eax)
 8049957:	c7 40 24 65 61 64 65 	movl   $0x65646165,0x24(%eax)
 804995e:	c7 40 28 72 20 66 72 	movl   $0x72662072,0x28(%eax)
 8049965:	c7 40 2c 6f 6d 20 73 	movl   $0x73206d6f,0x2c(%eax)
 804996c:	c7 40 30 65 72 76 65 	movl   $0x65767265,0x30(%eax)
 8049973:	66 c7 40 34 72 00    	movw   $0x72,0x34(%eax)
 8049979:	83 ec 0c             	sub    $0xc,%esp
 804997c:	ff b5 b4 5f ff ff    	pushl  -0xa04c(%ebp)
 8049982:	e8 19 ef ff ff       	call   80488a0 <close@plt>
 8049987:	83 c4 10             	add    $0x10,%esp
 804998a:	b8 ff ff ff ff       	mov    $0xffffffff,%eax
 804998f:	e9 19 02 00 00       	jmp    8049bad <submitr+0x757>
 8049994:	83 ec 0c             	sub    $0xc,%esp
 8049997:	8d 85 e4 df ff ff    	lea    -0x201c(%ebp),%eax
 804999d:	50                   	push   %eax
 804999e:	8d 85 c4 5f ff ff    	lea    -0xa03c(%ebp),%eax
 80499a4:	50                   	push   %eax
 80499a5:	8d 85 e4 bf ff ff    	lea    -0x401c(%ebp),%eax
 80499ab:	50                   	push   %eax
 80499ac:	68 5f a4 04 08       	push   $0x804a45f
 80499b1:	8d 85 e4 7f ff ff    	lea    -0x801c(%ebp),%eax
 80499b7:	50                   	push   %eax
 80499b8:	e8 53 ee ff ff       	call   8048810 <__isoc99_sscanf@plt>
 80499bd:	8b 85 c4 5f ff ff    	mov    -0xa03c(%ebp),%eax
 80499c3:	83 c4 20             	add    $0x20,%esp
 80499c6:	3d c8 00 00 00       	cmp    $0xc8,%eax
 80499cb:	0f 84 cc 00 00 00    	je     8049a9d <submitr+0x647>
 80499d1:	83 ec 08             	sub    $0x8,%esp
 80499d4:	8d 95 e4 df ff ff    	lea    -0x201c(%ebp),%edx
 80499da:	52                   	push   %edx
 80499db:	50                   	push   %eax
 80499dc:	68 70 a3 04 08       	push   $0x804a370
 80499e1:	6a ff                	push   $0xffffffff
 80499e3:	6a 01                	push   $0x1
 80499e5:	ff b5 a4 5f ff ff    	pushl  -0xa05c(%ebp)
 80499eb:	e8 d0 ee ff ff       	call   80488c0 <__sprintf_chk@plt>
 80499f0:	83 c4 14             	add    $0x14,%esp
 80499f3:	ff b5 b4 5f ff ff    	pushl  -0xa04c(%ebp)
 80499f9:	e8 a2 ee ff ff       	call   80488a0 <close@plt>
 80499fe:	83 c4 10             	add    $0x10,%esp
 8049a01:	b8 ff ff ff ff       	mov    $0xffffffff,%eax
 8049a06:	e9 a2 01 00 00       	jmp    8049bad <submitr+0x757>
 8049a0b:	b9 00 20 00 00       	mov    $0x2000,%ecx
 8049a10:	8d 95 e4 7f ff ff    	lea    -0x801c(%ebp),%edx
 8049a16:	8d 85 d8 5f ff ff    	lea    -0xa028(%ebp),%eax
 8049a1c:	e8 57 f9 ff ff       	call   8049378 <rio_readlineb>
 8049a21:	85 c0                	test   %eax,%eax
 8049a23:	7f 78                	jg     8049a9d <submitr+0x647>
 8049a25:	8b 85 a4 5f ff ff    	mov    -0xa05c(%ebp),%eax
 8049a2b:	c7 00 45 72 72 6f    	movl   $0x6f727245,(%eax)
 8049a31:	c7 40 04 72 3a 20 43 	movl   $0x43203a72,0x4(%eax)
 8049a38:	c7 40 08 6c 69 65 6e 	movl   $0x6e65696c,0x8(%eax)
 8049a3f:	c7 40 0c 74 20 75 6e 	movl   $0x6e752074,0xc(%eax)
 8049a46:	c7 40 10 61 62 6c 65 	movl   $0x656c6261,0x10(%eax)
 8049a4d:	c7 40 14 20 74 6f 20 	movl   $0x206f7420,0x14(%eax)
 8049a54:	c7 40 18 72 65 61 64 	movl   $0x64616572,0x18(%eax)
 8049a5b:	c7 40 1c 20 68 65 61 	movl   $0x61656820,0x1c(%eax)
 8049a62:	c7 40 20 64 65 72 73 	movl   $0x73726564,0x20(%eax)
 8049a69:	c7 40 24 20 66 72 6f 	movl   $0x6f726620,0x24(%eax)
 8049a70:	c7 40 28 6d 20 73 65 	movl   $0x6573206d,0x28(%eax)
 8049a77:	c7 40 2c 72 76 65 72 	movl   $0x72657672,0x2c(%eax)
 8049a7e:	c6 40 30 00          	movb   $0x0,0x30(%eax)
 8049a82:	83 ec 0c             	sub    $0xc,%esp
 8049a85:	ff b5 b4 5f ff ff    	pushl  -0xa04c(%ebp)
 8049a8b:	e8 10 ee ff ff       	call   80488a0 <close@plt>
 8049a90:	83 c4 10             	add    $0x10,%esp
 8049a93:	b8 ff ff ff ff       	mov    $0xffffffff,%eax
 8049a98:	e9 10 01 00 00       	jmp    8049bad <submitr+0x757>
 8049a9d:	80 bd e4 7f ff ff 0d 	cmpb   $0xd,-0x801c(%ebp)
 8049aa4:	0f 85 61 ff ff ff    	jne    8049a0b <submitr+0x5b5>
 8049aaa:	80 bd e5 7f ff ff 0a 	cmpb   $0xa,-0x801b(%ebp)
 8049ab1:	0f 85 54 ff ff ff    	jne    8049a0b <submitr+0x5b5>
 8049ab7:	80 bd e6 7f ff ff 00 	cmpb   $0x0,-0x801a(%ebp)
 8049abe:	0f 85 47 ff ff ff    	jne    8049a0b <submitr+0x5b5>
 8049ac4:	b9 00 20 00 00       	mov    $0x2000,%ecx
 8049ac9:	8d 95 e4 7f ff ff    	lea    -0x801c(%ebp),%edx
 8049acf:	8d 85 d8 5f ff ff    	lea    -0xa028(%ebp),%eax
 8049ad5:	e8 9e f8 ff ff       	call   8049378 <rio_readlineb>
 8049ada:	85 c0                	test   %eax,%eax
 8049adc:	7f 7f                	jg     8049b5d <submitr+0x707>
 8049ade:	8b 85 a4 5f ff ff    	mov    -0xa05c(%ebp),%eax
 8049ae4:	c7 00 45 72 72 6f    	movl   $0x6f727245,(%eax)
 8049aea:	c7 40 04 72 3a 20 43 	movl   $0x43203a72,0x4(%eax)
 8049af1:	c7 40 08 6c 69 65 6e 	movl   $0x6e65696c,0x8(%eax)
 8049af8:	c7 40 0c 74 20 75 6e 	movl   $0x6e752074,0xc(%eax)
 8049aff:	c7 40 10 61 62 6c 65 	movl   $0x656c6261,0x10(%eax)
 8049b06:	c7 40 14 20 74 6f 20 	movl   $0x206f7420,0x14(%eax)
 8049b0d:	c7 40 18 72 65 61 64 	movl   $0x64616572,0x18(%eax)
 8049b14:	c7 40 1c 20 73 74 61 	movl   $0x61747320,0x1c(%eax)
 8049b1b:	c7 40 20 74 75 73 20 	movl   $0x20737574,0x20(%eax)
 8049b22:	c7 40 24 6d 65 73 73 	movl   $0x7373656d,0x24(%eax)
 8049b29:	c7 40 28 61 67 65 20 	movl   $0x20656761,0x28(%eax)
 8049b30:	c7 40 2c 66 72 6f 6d 	movl   $0x6d6f7266,0x2c(%eax)
 8049b37:	c7 40 30 20 73 65 72 	movl   $0x72657320,0x30(%eax)
 8049b3e:	c7 40 34 76 65 72 00 	movl   $0x726576,0x34(%eax)
 8049b45:	83 ec 0c             	sub    $0xc,%esp
 8049b48:	ff b5 b4 5f ff ff    	pushl  -0xa04c(%ebp)
 8049b4e:	e8 4d ed ff ff       	call   80488a0 <close@plt>
 8049b53:	83 c4 10             	add    $0x10,%esp
 8049b56:	b8 ff ff ff ff       	mov    $0xffffffff,%eax
 8049b5b:	eb 50                	jmp    8049bad <submitr+0x757>
 8049b5d:	83 ec 08             	sub    $0x8,%esp
 8049b60:	8d 85 e4 7f ff ff    	lea    -0x801c(%ebp),%eax
 8049b66:	50                   	push   %eax
 8049b67:	8b b5 a4 5f ff ff    	mov    -0xa05c(%ebp),%esi
 8049b6d:	56                   	push   %esi
 8049b6e:	e8 2d ec ff ff       	call   80487a0 <strcpy@plt>
 8049b73:	83 c4 04             	add    $0x4,%esp
 8049b76:	ff b5 b4 5f ff ff    	pushl  -0xa04c(%ebp)
 8049b7c:	e8 1f ed ff ff       	call   80488a0 <close@plt>
 8049b81:	0f b6 16             	movzbl (%esi),%edx
 8049b84:	b8 4f 00 00 00       	mov    $0x4f,%eax
 8049b89:	83 c4 10             	add    $0x10,%esp
 8049b8c:	29 d0                	sub    %edx,%eax
 8049b8e:	75 13                	jne    8049ba3 <submitr+0x74d>
 8049b90:	0f b6 56 01          	movzbl 0x1(%esi),%edx
 8049b94:	b8 4b 00 00 00       	mov    $0x4b,%eax
 8049b99:	29 d0                	sub    %edx,%eax
 8049b9b:	75 06                	jne    8049ba3 <submitr+0x74d>
 8049b9d:	0f b6 46 02          	movzbl 0x2(%esi),%eax
 8049ba1:	f7 d8                	neg    %eax
 8049ba3:	85 c0                	test   %eax,%eax
 8049ba5:	0f 95 c0             	setne  %al
 8049ba8:	0f b6 c0             	movzbl %al,%eax
 8049bab:	f7 d8                	neg    %eax
 8049bad:	8b 75 e4             	mov    -0x1c(%ebp),%esi
 8049bb0:	65 33 35 14 00 00 00 	xor    %gs:0x14,%esi
 8049bb7:	0f 84 ae 00 00 00    	je     8049c6b <submitr+0x815>
 8049bbd:	e9 a4 00 00 00       	jmp    8049c66 <submitr+0x810>
 8049bc2:	a1 a0 a3 04 08       	mov    0x804a3a0,%eax
 8049bc7:	8b b5 a4 5f ff ff    	mov    -0xa05c(%ebp),%esi
 8049bcd:	89 06                	mov    %eax,(%esi)
 8049bcf:	a1 df a3 04 08       	mov    0x804a3df,%eax
 8049bd4:	89 46 3f             	mov    %eax,0x3f(%esi)
 8049bd7:	8d 7e 04             	lea    0x4(%esi),%edi
 8049bda:	83 e7 fc             	and    $0xfffffffc,%edi
 8049bdd:	29 fe                	sub    %edi,%esi
 8049bdf:	89 f0                	mov    %esi,%eax
 8049be1:	be a0 a3 04 08       	mov    $0x804a3a0,%esi
 8049be6:	29 c6                	sub    %eax,%esi
 8049be8:	83 c0 43             	add    $0x43,%eax
 8049beb:	c1 e8 02             	shr    $0x2,%eax
 8049bee:	89 c1                	mov    %eax,%ecx
 8049bf0:	f3 a5                	rep movsl %ds:(%esi),%es:(%edi)
 8049bf2:	83 ec 0c             	sub    $0xc,%esp
 8049bf5:	ff b5 b4 5f ff ff    	pushl  -0xa04c(%ebp)
 8049bfb:	e8 a0 ec ff ff       	call   80488a0 <close@plt>
 8049c00:	83 c4 10             	add    $0x10,%esp
 8049c03:	b8 ff ff ff ff       	mov    $0xffffffff,%eax
 8049c08:	eb a3                	jmp    8049bad <submitr+0x757>
 8049c0a:	8d 85 e4 9f ff ff    	lea    -0x601c(%ebp),%eax
 8049c10:	50                   	push   %eax
 8049c11:	ff b5 a8 5f ff ff    	pushl  -0xa058(%ebp)
 8049c17:	ff b5 ac 5f ff ff    	pushl  -0xa054(%ebp)
 8049c1d:	ff b5 b0 5f ff ff    	pushl  -0xa050(%ebp)
 8049c23:	68 e4 a3 04 08       	push   $0x804a3e4
 8049c28:	68 00 20 00 00       	push   $0x2000
 8049c2d:	6a 01                	push   $0x1
 8049c2f:	8d bd e4 7f ff ff    	lea    -0x801c(%ebp),%edi
 8049c35:	57                   	push   %edi
 8049c36:	e8 85 ec ff ff       	call   80488c0 <__sprintf_chk@plt>
 8049c3b:	b8 00 00 00 00       	mov    $0x0,%eax
 8049c40:	b9 ff ff ff ff       	mov    $0xffffffff,%ecx
 8049c45:	f2 ae                	repnz scas %es:(%edi),%al
 8049c47:	89 cf                	mov    %ecx,%edi
 8049c49:	f7 d7                	not    %edi
 8049c4b:	83 ef 01             	sub    $0x1,%edi
 8049c4e:	83 c4 20             	add    $0x20,%esp
 8049c51:	89 fb                	mov    %edi,%ebx
 8049c53:	8d b5 e4 7f ff ff    	lea    -0x801c(%ebp),%esi
 8049c59:	85 ff                	test   %edi,%edi
 8049c5b:	0f 85 c8 fb ff ff    	jne    8049829 <submitr+0x3d3>
 8049c61:	e9 6d fc ff ff       	jmp    80498d3 <submitr+0x47d>
 8049c66:	e8 25 eb ff ff       	call   8048790 <__stack_chk_fail@plt>
 8049c6b:	8d 65 f4             	lea    -0xc(%ebp),%esp
 8049c6e:	5b                   	pop    %ebx
 8049c6f:	5e                   	pop    %esi
 8049c70:	5f                   	pop    %edi
 8049c71:	5d                   	pop    %ebp
 8049c72:	c3                   	ret    

08049c73 <init_timeout>:
 8049c73:	55                   	push   %ebp
 8049c74:	89 e5                	mov    %esp,%ebp
 8049c76:	53                   	push   %ebx
 8049c77:	83 ec 04             	sub    $0x4,%esp
 8049c7a:	8b 5d 08             	mov    0x8(%ebp),%ebx
 8049c7d:	85 db                	test   %ebx,%ebx
 8049c7f:	74 24                	je     8049ca5 <init_timeout+0x32>
 8049c81:	83 ec 08             	sub    $0x8,%esp
 8049c84:	68 52 93 04 08       	push   $0x8049352
 8049c89:	6a 0e                	push   $0xe
 8049c8b:	e8 d0 ea ff ff       	call   8048760 <signal@plt>
 8049c90:	85 db                	test   %ebx,%ebx
 8049c92:	b8 00 00 00 00       	mov    $0x0,%eax
 8049c97:	0f 48 d8             	cmovs  %eax,%ebx
 8049c9a:	89 1c 24             	mov    %ebx,(%esp)
 8049c9d:	e8 de ea ff ff       	call   8048780 <alarm@plt>
 8049ca2:	83 c4 10             	add    $0x10,%esp
 8049ca5:	8b 5d fc             	mov    -0x4(%ebp),%ebx
 8049ca8:	c9                   	leave  
 8049ca9:	c3                   	ret    

08049caa <init_driver>:
 8049caa:	55                   	push   %ebp
 8049cab:	89 e5                	mov    %esp,%ebp
 8049cad:	57                   	push   %edi
 8049cae:	56                   	push   %esi
 8049caf:	53                   	push   %ebx
 8049cb0:	83 ec 34             	sub    $0x34,%esp
 8049cb3:	8b 75 08             	mov    0x8(%ebp),%esi
 8049cb6:	65 a1 14 00 00 00    	mov    %gs:0x14,%eax
 8049cbc:	89 45 e4             	mov    %eax,-0x1c(%ebp)
 8049cbf:	31 c0                	xor    %eax,%eax
 8049cc1:	6a 01                	push   $0x1
 8049cc3:	6a 0d                	push   $0xd
 8049cc5:	e8 96 ea ff ff       	call   8048760 <signal@plt>
 8049cca:	83 c4 08             	add    $0x8,%esp
 8049ccd:	6a 01                	push   $0x1
 8049ccf:	6a 1d                	push   $0x1d
 8049cd1:	e8 8a ea ff ff       	call   8048760 <signal@plt>
 8049cd6:	83 c4 08             	add    $0x8,%esp
 8049cd9:	6a 01                	push   $0x1
 8049cdb:	6a 1d                	push   $0x1d
 8049cdd:	e8 7e ea ff ff       	call   8048760 <signal@plt>
 8049ce2:	83 c4 0c             	add    $0xc,%esp
 8049ce5:	6a 00                	push   $0x0
 8049ce7:	6a 01                	push   $0x1
 8049ce9:	6a 02                	push   $0x2
 8049ceb:	e8 60 eb ff ff       	call   8048850 <socket@plt>
 8049cf0:	83 c4 10             	add    $0x10,%esp
 8049cf3:	85 c0                	test   %eax,%eax
 8049cf5:	79 4e                	jns    8049d45 <init_driver+0x9b>
 8049cf7:	c7 06 45 72 72 6f    	movl   $0x6f727245,(%esi)
 8049cfd:	c7 46 04 72 3a 20 43 	movl   $0x43203a72,0x4(%esi)
 8049d04:	c7 46 08 6c 69 65 6e 	movl   $0x6e65696c,0x8(%esi)
 8049d0b:	c7 46 0c 74 20 75 6e 	movl   $0x6e752074,0xc(%esi)
 8049d12:	c7 46 10 61 62 6c 65 	movl   $0x656c6261,0x10(%esi)
 8049d19:	c7 46 14 20 74 6f 20 	movl   $0x206f7420,0x14(%esi)
 8049d20:	c7 46 18 63 72 65 61 	movl   $0x61657263,0x18(%esi)
 8049d27:	c7 46 1c 74 65 20 73 	movl   $0x73206574,0x1c(%esi)
 8049d2e:	c7 46 20 6f 63 6b 65 	movl   $0x656b636f,0x20(%esi)
 8049d35:	66 c7 46 24 74 00    	movw   $0x74,0x24(%esi)
 8049d3b:	b8 ff ff ff ff       	mov    $0xffffffff,%eax
 8049d40:	e9 17 01 00 00       	jmp    8049e5c <init_driver+0x1b2>
 8049d45:	89 c3                	mov    %eax,%ebx
 8049d47:	83 ec 0c             	sub    $0xc,%esp
 8049d4a:	68 70 a4 04 08       	push   $0x804a470
 8049d4f:	e8 1c eb ff ff       	call   8048870 <gethostbyname@plt>
 8049d54:	83 c4 10             	add    $0x10,%esp
 8049d57:	85 c0                	test   %eax,%eax
 8049d59:	75 6c                	jne    8049dc7 <init_driver+0x11d>
 8049d5b:	c7 06 45 72 72 6f    	movl   $0x6f727245,(%esi)
 8049d61:	c7 46 04 72 3a 20 44 	movl   $0x44203a72,0x4(%esi)
 8049d68:	c7 46 08 4e 53 20 69 	movl   $0x6920534e,0x8(%esi)
 8049d6f:	c7 46 0c 73 20 75 6e 	movl   $0x6e752073,0xc(%esi)
 8049d76:	c7 46 10 61 62 6c 65 	movl   $0x656c6261,0x10(%esi)
 8049d7d:	c7 46 14 20 74 6f 20 	movl   $0x206f7420,0x14(%esi)
 8049d84:	c7 46 18 72 65 73 6f 	movl   $0x6f736572,0x18(%esi)
 8049d8b:	c7 46 1c 6c 76 65 20 	movl   $0x2065766c,0x1c(%esi)
 8049d92:	c7 46 20 73 65 72 76 	movl   $0x76726573,0x20(%esi)
 8049d99:	c7 46 24 65 72 20 61 	movl   $0x61207265,0x24(%esi)
 8049da0:	c7 46 28 64 64 72 65 	movl   $0x65726464,0x28(%esi)
 8049da7:	66 c7 46 2c 73 73    	movw   $0x7373,0x2c(%esi)
 8049dad:	c6 46 2e 00          	movb   $0x0,0x2e(%esi)
 8049db1:	83 ec 0c             	sub    $0xc,%esp
 8049db4:	53                   	push   %ebx
 8049db5:	e8 e6 ea ff ff       	call   80488a0 <close@plt>
 8049dba:	83 c4 10             	add    $0x10,%esp
 8049dbd:	b8 ff ff ff ff       	mov    $0xffffffff,%eax
 8049dc2:	e9 95 00 00 00       	jmp    8049e5c <init_driver+0x1b2>
 8049dc7:	8d 7d d4             	lea    -0x2c(%ebp),%edi
 8049dca:	c7 45 d4 00 00 00 00 	movl   $0x0,-0x2c(%ebp)
 8049dd1:	c7 45 d8 00 00 00 00 	movl   $0x0,-0x28(%ebp)
 8049dd8:	c7 45 dc 00 00 00 00 	movl   $0x0,-0x24(%ebp)
 8049ddf:	c7 45 e0 00 00 00 00 	movl   $0x0,-0x20(%ebp)
 8049de6:	66 c7 45 d4 02 00    	movw   $0x2,-0x2c(%ebp)
 8049dec:	6a 0c                	push   $0xc
 8049dee:	ff 70 0c             	pushl  0xc(%eax)
 8049df1:	8b 40 10             	mov    0x10(%eax),%eax
 8049df4:	ff 30                	pushl  (%eax)
 8049df6:	8d 45 d8             	lea    -0x28(%ebp),%eax
 8049df9:	50                   	push   %eax
 8049dfa:	e8 d1 e9 ff ff       	call   80487d0 <__memmove_chk@plt>
 8049dff:	66 c7 45 d6 3b 6e    	movw   $0x6e3b,-0x2a(%ebp)
 8049e05:	83 c4 0c             	add    $0xc,%esp
 8049e08:	6a 10                	push   $0x10
 8049e0a:	57                   	push   %edi
 8049e0b:	53                   	push   %ebx
 8049e0c:	e8 7f ea ff ff       	call   8048890 <connect@plt>
 8049e11:	83 c4 10             	add    $0x10,%esp
 8049e14:	85 c0                	test   %eax,%eax
 8049e16:	79 2a                	jns    8049e42 <init_driver+0x198>
 8049e18:	83 ec 0c             	sub    $0xc,%esp
 8049e1b:	68 70 a4 04 08       	push   $0x804a470
 8049e20:	68 30 a4 04 08       	push   $0x804a430
 8049e25:	6a ff                	push   $0xffffffff
 8049e27:	6a 01                	push   $0x1
 8049e29:	56                   	push   %esi
 8049e2a:	e8 91 ea ff ff       	call   80488c0 <__sprintf_chk@plt>
 8049e2f:	83 c4 14             	add    $0x14,%esp
 8049e32:	53                   	push   %ebx
 8049e33:	e8 68 ea ff ff       	call   80488a0 <close@plt>
 8049e38:	83 c4 10             	add    $0x10,%esp
 8049e3b:	b8 ff ff ff ff       	mov    $0xffffffff,%eax
 8049e40:	eb 1a                	jmp    8049e5c <init_driver+0x1b2>
 8049e42:	83 ec 0c             	sub    $0xc,%esp
 8049e45:	53                   	push   %ebx
 8049e46:	e8 55 ea ff ff       	call   80488a0 <close@plt>
 8049e4b:	66 c7 06 4f 4b       	movw   $0x4b4f,(%esi)
 8049e50:	c6 46 02 00          	movb   $0x0,0x2(%esi)
 8049e54:	83 c4 10             	add    $0x10,%esp
 8049e57:	b8 00 00 00 00       	mov    $0x0,%eax
 8049e5c:	8b 55 e4             	mov    -0x1c(%ebp),%edx
 8049e5f:	65 33 15 14 00 00 00 	xor    %gs:0x14,%edx
 8049e66:	74 05                	je     8049e6d <init_driver+0x1c3>
 8049e68:	e8 23 e9 ff ff       	call   8048790 <__stack_chk_fail@plt>
 8049e6d:	8d 65 f4             	lea    -0xc(%ebp),%esp
 8049e70:	5b                   	pop    %ebx
 8049e71:	5e                   	pop    %esi
 8049e72:	5f                   	pop    %edi
 8049e73:	5d                   	pop    %ebp
 8049e74:	c3                   	ret    

08049e75 <driver_post>:
 8049e75:	55                   	push   %ebp
 8049e76:	89 e5                	mov    %esp,%ebp
 8049e78:	53                   	push   %ebx
 8049e79:	83 ec 04             	sub    $0x4,%esp
 8049e7c:	8b 45 08             	mov    0x8(%ebp),%eax
 8049e7f:	8b 5d 14             	mov    0x14(%ebp),%ebx
 8049e82:	83 7d 10 00          	cmpl   $0x0,0x10(%ebp)
 8049e86:	74 25                	je     8049ead <driver_post+0x38>
 8049e88:	83 ec 04             	sub    $0x4,%esp
 8049e8b:	ff 75 0c             	pushl  0xc(%ebp)
 8049e8e:	68 80 a4 04 08       	push   $0x804a480
 8049e93:	6a 01                	push   $0x1
 8049e95:	e8 a6 e9 ff ff       	call   8048840 <__printf_chk@plt>
 8049e9a:	66 c7 03 4f 4b       	movw   $0x4b4f,(%ebx)
 8049e9f:	c6 43 02 00          	movb   $0x0,0x2(%ebx)
 8049ea3:	83 c4 10             	add    $0x10,%esp
 8049ea6:	b8 00 00 00 00       	mov    $0x0,%eax
 8049eab:	eb 3d                	jmp    8049eea <driver_post+0x75>
 8049ead:	85 c0                	test   %eax,%eax
 8049eaf:	74 2b                	je     8049edc <driver_post+0x67>
 8049eb1:	80 38 00             	cmpb   $0x0,(%eax)
 8049eb4:	74 26                	je     8049edc <driver_post+0x67>
 8049eb6:	83 ec 04             	sub    $0x4,%esp
 8049eb9:	53                   	push   %ebx
 8049eba:	ff 75 0c             	pushl  0xc(%ebp)
 8049ebd:	68 97 a4 04 08       	push   $0x804a497
 8049ec2:	50                   	push   %eax
 8049ec3:	68 a6 a4 04 08       	push   $0x804a4a6
 8049ec8:	68 6e 3b 00 00       	push   $0x3b6e
 8049ecd:	68 70 a4 04 08       	push   $0x804a470
 8049ed2:	e8 7f f5 ff ff       	call   8049456 <submitr>
 8049ed7:	83 c4 20             	add    $0x20,%esp
 8049eda:	eb 0e                	jmp    8049eea <driver_post+0x75>
 8049edc:	66 c7 03 4f 4b       	movw   $0x4b4f,(%ebx)
 8049ee1:	c6 43 02 00          	movb   $0x0,0x2(%ebx)
 8049ee5:	b8 00 00 00 00       	mov    $0x0,%eax
 8049eea:	8b 5d fc             	mov    -0x4(%ebp),%ebx
 8049eed:	c9                   	leave  
 8049eee:	c3                   	ret    
 8049eef:	90                   	nop

08049ef0 <__libc_csu_init>:
 8049ef0:	55                   	push   %ebp
 8049ef1:	57                   	push   %edi
 8049ef2:	56                   	push   %esi
 8049ef3:	53                   	push   %ebx
 8049ef4:	e8 17 ea ff ff       	call   8048910 <__x86.get_pc_thunk.bx>
 8049ef9:	81 c3 07 21 00 00    	add    $0x2107,%ebx
 8049eff:	83 ec 0c             	sub    $0xc,%esp
 8049f02:	8b 6c 24 20          	mov    0x20(%esp),%ebp
 8049f06:	8d b3 0c ff ff ff    	lea    -0xf4(%ebx),%esi
 8049f0c:	e8 e3 e7 ff ff       	call   80486f4 <_init>
 8049f11:	8d 83 08 ff ff ff    	lea    -0xf8(%ebx),%eax
 8049f17:	29 c6                	sub    %eax,%esi
 8049f19:	c1 fe 02             	sar    $0x2,%esi
 8049f1c:	85 f6                	test   %esi,%esi
 8049f1e:	74 25                	je     8049f45 <__libc_csu_init+0x55>
 8049f20:	31 ff                	xor    %edi,%edi
 8049f22:	8d b6 00 00 00 00    	lea    0x0(%esi),%esi
 8049f28:	83 ec 04             	sub    $0x4,%esp
 8049f2b:	ff 74 24 2c          	pushl  0x2c(%esp)
 8049f2f:	ff 74 24 2c          	pushl  0x2c(%esp)
 8049f33:	55                   	push   %ebp
 8049f34:	ff 94 bb 08 ff ff ff 	call   *-0xf8(%ebx,%edi,4)
 8049f3b:	83 c7 01             	add    $0x1,%edi
 8049f3e:	83 c4 10             	add    $0x10,%esp
 8049f41:	39 f7                	cmp    %esi,%edi
 8049f43:	75 e3                	jne    8049f28 <__libc_csu_init+0x38>
 8049f45:	83 c4 0c             	add    $0xc,%esp
 8049f48:	5b                   	pop    %ebx
 8049f49:	5e                   	pop    %esi
 8049f4a:	5f                   	pop    %edi
 8049f4b:	5d                   	pop    %ebp
 8049f4c:	c3                   	ret    
 8049f4d:	8d 76 00             	lea    0x0(%esi),%esi

08049f50 <__libc_csu_fini>:
 8049f50:	f3 c3                	repz ret 

Disassembly of section .fini:

08049f54 <_fini>:
 8049f54:	53                   	push   %ebx
 8049f55:	83 ec 08             	sub    $0x8,%esp
 8049f58:	e8 b3 e9 ff ff       	call   8048910 <__x86.get_pc_thunk.bx>
 8049f5d:	81 c3 a3 20 00 00    	add    $0x20a3,%ebx
 8049f63:	83 c4 08             	add    $0x8,%esp
 8049f66:	5b                   	pop    %ebx
 8049f67:	c3                   	ret    
